Certificate:
    Data:
        Version: 3 (0x2)
        Serial Number: 2 (0x2)
        Signature Algorithm: md5WithRSAEncryption
        Issuer: C=RU, ST=Some-State, L=Orenburg, O=MySQL AB, CN=Walrus/Email=walrus@mysql.com
        Validity
            Not Before: Aug  2 22:08:07 2002 GMT
            Not After : Aug  2 22:08:07 2003 GMT
        Subject: C=RU, L=orenburg, O=MySQL AB, OU=client, CN=walrus/Email=walrus@mysql.com
        Subject Public Key Info:
            Public Key Algorithm: rsaEncryption
            RSA Public Key: (1024 bit)
                Modulus (1024 bit):
                    00:ab:27:e4:1e:f0:34:8b:a9:50:df:0a:b0:55:20:
                    b3:1f:0f:cf:f1:51:1e:66:48:a6:f8:4e:0d:d4:49:
                    f4:ea:d3:41:6b:7e:06:78:3c:29:9d:8e:d3:33:4d:
                    0b:fc:34:4d:18:88:48:61:af:11:da:db:84:c0:92:
                    91:81:6a:b6:21:d5:8e:9b:f2:6f:d8:06:ad:d6:77:
                    f6:8b:bd:07:d5:b7:fb:c6:f0:64:e6:3f:58:f0:6a:
                    1e:81:73:97:6d:9d:c6:ec:b0:5e:1e:c6:57:82:b0:
                    98:9c:ae:26:84:43:0d:98:6c:b4:d8:52:13:70:15:
                    79:61:40:84:19:ea:f6:63:3f
                Exponent: 65537 (0x10001)
        X509v3 extensions:
            X509v3 Basic Constraints: 
                CA:FALSE
            Netscape Comment: 
                OpenSSL Generated Certificate
            X509v3 Subject Key Identifier: 
                A6:D9:70:92:AC:2B:F6:48:A5:FB:29:CF:78:4A:57:B5:3B:43:97:EE
            X509v3 Authority Key Identifier: 
                keyid:D9:D8:6A:7D:AB:CE:10:62:1A:16:FC:E9:6A:F4:DC:F1:66:AC:D0:B9
                DirName:/C=RU/ST=Some-State/L=Orenburg/O=MySQL AB/CN=Walrus/Email=walrus@mysql.com
                serial:00

    Signature Algorithm: md5WithRSAEncryption
        15:96:43:10:89:e0:a6:82:a4:91:0f:7e:2e:d8:80:54:ba:63:
        e2:8f:b0:aa:ea:be:35:2c:8f:0d:03:a9:86:2e:32:51:33:8a:
        cc:b2:5e:b3:12:cb:b7:42:06:40:89:ce:92:87:40:f1:6a:79:
        0c:3e:00:1d:06:bf:3c:c1:da:f6:3b:e1:42:e6:55:4c:31:e1:
        b9:79:f3:99:14:f6:68:9e:67:2b:e3:71:88:6b:2b:e2:08:bd:
        67:79:ea:0e:7d:34:0d:41:22:3a:f4:8f:4d:51:07:6f:5a:44:
        34:05:d1:b3:ca:cf:09:2b:43:25:a1:7f:ac:f4:54:f1:e3:93:
        47:44
-----BEGIN CERTIFICATE-----
MIIDajCCAtOgAwIBAgIBAjANBgkqhkiG9w0BAQQFADB6MQswCQYDVQQGEwJSVTET
MBEGA1UECBMKU29tZS1TdGF0ZTERMA8GA1UEBxMIT3JlbmJ1cmcxETAPBgNVBAoT
CE15U1FMIEFCMQ8wDQYDVQQDEwZXYWxydXMxHzAdBgkqhkiG9w0BCQEWEHdhbHJ1
c0BteXNxbC5jb20wHhcNMDIwODAyMjIwODA3WhcNMDMwODAyMjIwODA3WjB2MQsw
CQYDVQQGEwJSVTERMA8GA1UEBxMIb3JlbmJ1cmcxETAPBgNVBAoTCE15U1FMIEFC
MQ8wDQYDVQQLEwZjbGllbnQxDzANBgNVBAMTBndhbHJ1czEfMB0GCSqGSIb3DQEJ
ARYQd2FscnVzQG15c3FsLmNvbTCBnzANBgkqhkiG9w0BAQEFAAOBjQAwgYkCgYEA
qyfkHvA0i6lQ3wqwVSCzHw/P8VEeZkim+E4N1En06tNBa34GeDwpnY7TM00L/DRN
GIhIYa8R2tuEwJKRgWq2IdWOm/Jv2Aat1nf2i70H1bf7xvBk5j9Y8GoegXOXbZ3G
7LBeHsZXgrCYnK4mhEMNmGy02FITcBV5YUCEGer2Yz8CAwEAAaOCAQIwgf8wCQYD
VR0TBAIwADAsBglghkgBhvhCAQ0EHxYdT3BlblNTTCBHZW5lcmF0ZWQgQ2VydGlm
aWNhdGUwHQYDVR0OBBYEFKbZcJKsK/ZIpfspz3hKV7U7Q5fuMIGkBgNVHSMEgZww
gZmAFNnYan2rzhBiGhb86Wr03PFmrNC5oX6kfDB6MQswCQYDVQQGEwJSVTETMBEG
A1UECBMKU29tZS1TdGF0ZTERMA8GA1UEBxMIT3JlbmJ1cmcxETAPBgNVBAoTCE15
U1FMIEFCMQ8wDQYDVQQDEwZXYWxydXMxHzAdBgkqhkiG9w0BCQEWEHdhbHJ1c0Bt
eXNxbC5jb22CAQAwDQYJKoZIhvcNAQEEBQADgYEAFZZDEIngpoKkkQ9+LtiAVLpj
4o+wquq+NSyPDQOphi4yUTOKzLJesxLLt0IGQInOkodA8Wp5DD4AHQa/PMHa9jvh
QuZVTDHhuXnzmRT2aJ5nK+NxiGsr4gi9Z3nqDn00DUEiOvSPTVEHb1pENAXRs8rP
CStDJaF/rPRU8eOTR0Q=
-----END CERTIFICATE-----
