Certificate:
    Data:
        Version: 3 (0x2)
        Serial Number: 2 (0x2)
        Signature Algorithm: md5WithRSAEncryption
        Issuer: C=SE, L=Uppsala, O=MySQL AB, CN=Abstract MySQL Developer/Email=abstract.mysql.developer@mysql.com
        Validity
            Not Before: Aug  7 11:41:56 2003 GMT
            Not After : Aug  4 11:41:56 2013 GMT
        Subject: C=SE, L=Uppsala, O=MySQL AB, CN=MySQL Client/Email=abstract.mysql.developer@mysql.com
        Subject Public Key Info:
            Public Key Algorithm: rsaEncryption
            RSA Public Key: (1024 bit)
                Modulus (1024 bit):
                    00:c4:03:0a:ee:e3:b1:12:fc:ee:b4:19:f4:e1:60:
                    1d:e0:28:c3:96:2d:df:82:69:cd:74:7c:54:58:d0:
                    ae:b3:59:3f:0c:19:1c:99:10:a6:12:c9:cf:3a:64:
                    05:43:8e:bf:d2:65:36:80:91:0b:65:b0:27:26:38:
                    c9:23:d8:36:a2:4a:f0:f7:c0:2f:68:38:70:01:27:
                    29:ff:b2:c5:52:e1:6b:f1:c8:d7:c3:5c:ee:f0:37:
                    6c:2a:9b:96:1a:05:9e:eb:33:a2:39:5a:77:66:62:
                    27:75:1f:2f:6f:38:da:e5:9f:78:af:ca:6b:22:3f:
                    57:2b:bc:a6:8f:47:d1:99:6f
                Exponent: 65537 (0x10001)
        X509v3 extensions:
            X509v3 Basic Constraints: 
                CA:FALSE
            Netscape Comment: 
                OpenSSL Generated Certificate
            X509v3 Subject Key Identifier: 
                80:81:A9:22:EB:AB:D6:CA:7E:3F:8D:BB:D1:AC:2A:F4:87:9D:13:29
            X509v3 Authority Key Identifier: 
                keyid:95:4A:41:3E:F1:5C:12:B4:7B:3E:9F:3B:0C:23:66:90:3D:7F:4E:D8
                DirName:/C=SE/L=Uppsala/O=MySQL AB/CN=Abstract MySQL Developer/Email=abstract.mysql.developer@mysql.com
                serial:00

    Signature Algorithm: md5WithRSAEncryption
        6d:8a:af:34:07:ac:95:72:a4:78:fe:f8:b8:30:9a:e0:d9:74:
        82:34:5c:fd:11:15:dd:63:fd:65:20:04:7e:b5:8f:2e:26:ef:
        ab:b9:10:5f:9b:40:65:76:ab:ed:bd:bf:d5:bc:89:7f:19:d8:
        a7:b5:9e:24:bd:c7:ac:8e:16:35:83:c8:ce:8d:85:7c:b4:36:
        28:dd:3a:97:e5:b2:dd:8f:88:4d:5b:50:bd:97:28:61:8e:e7:
        05:5c:c2:bb:46:a1:ac:7e:ee:ac:7d:72:d5:a7:07:4e:1d:68:
        4e:80:e2:35:7d:db:24:73:be:bc:0d:ca:f4:ae:4e:21:52:3b:
        ae:81
-----BEGIN CERTIFICATE-----
MIIDkTCCAvqgAwIBAgIBAjANBgkqhkiG9w0BAQQFADCBiDELMAkGA1UEBhMCU0Ux
EDAOBgNVBAcTB1VwcHNhbGExETAPBgNVBAoTCE15U1FMIEFCMSEwHwYDVQQDExhB
YnN0cmFjdCBNeVNRTCBEZXZlbG9wZXIxMTAvBgkqhkiG9w0BCQEWImFic3RyYWN0
Lm15c3FsLmRldmVsb3BlckBteXNxbC5jb20wHhcNMDMwODA3MTE0MTU2WhcNMTMw
ODA0MTE0MTU2WjB8MQswCQYDVQQGEwJTRTEQMA4GA1UEBxMHVXBwc2FsYTERMA8G
A1UEChMITXlTUUwgQUIxFTATBgNVBAMTDE15U1FMIENsaWVudDExMC8GCSqGSIb3
DQEJARYiYWJzdHJhY3QubXlzcWwuZGV2ZWxvcGVyQG15c3FsLmNvbTCBnzANBgkq
hkiG9w0BAQEFAAOBjQAwgYkCgYEAxAMK7uOxEvzutBn04WAd4CjDli3fgmnNdHxU
WNCus1k/DBkcmRCmEsnPOmQFQ46/0mU2gJELZbAnJjjJI9g2okrw98AvaDhwAScp
/7LFUuFr8cjXw1zu8DdsKpuWGgWe6zOiOVp3ZmIndR8vbzja5Z94r8prIj9XK7ym
j0fRmW8CAwEAAaOCARQwggEQMAkGA1UdEwQCMAAwLAYJYIZIAYb4QgENBB8WHU9w
ZW5TU0wgR2VuZXJhdGVkIENlcnRpZmljYXRlMB0GA1UdDgQWBBSAgaki66vWyn4/
jbvRrCr0h50TKTCBtQYDVR0jBIGtMIGqgBSVSkE+8VwStHs+nzsMI2aQPX9O2KGB
jqSBizCBiDELMAkGA1UEBhMCU0UxEDAOBgNVBAcTB1VwcHNhbGExETAPBgNVBAoT
CE15U1FMIEFCMSEwHwYDVQQDExhBYnN0cmFjdCBNeVNRTCBEZXZlbG9wZXIxMTAv
BgkqhkiG9w0BCQEWImFic3RyYWN0Lm15c3FsLmRldmVsb3BlckBteXNxbC5jb22C
AQAwDQYJKoZIhvcNAQEEBQADgYEAbYqvNAeslXKkeP74uDCa4Nl0gjRc/REV3WP9
ZSAEfrWPLibvq7kQX5tAZXar7b2/1byJfxnYp7WeJL3HrI4WNYPIzo2FfLQ2KN06
l+Wy3Y+ITVtQvZcoYY7nBVzCu0ahrH7urH1y1acHTh1oToDiNX3bJHO+vA3K9K5O
IVI7roE=
-----END CERTIFICATE-----
