Certificate:
    Data:
        Version: 1 (0x0)
        Serial Number: 1 (0x1)
        Signature Algorithm: md5WithRSAEncryption
        Issuer: C=SE, ST=Uppsala, L=Uppsala, O=MySQL AB
        Validity
            Not Before: May  3 08:55:39 2006 GMT
            Not After : Jan 27 08:55:39 2009 GMT
        Subject: C=SE, ST=Uppsala, L=Uppsala, O=MySQL AB/emailAddress=abstract.mysql.developer@mysql.com
        Subject Public Key Info:
            Public Key Algorithm: rsaEncryption
            RSA Public Key: (512 bit)
                Modulus (512 bit):
                    00:d8:db:68:28:49:84:4d:d6:0f:5c:bc:3d:9a:ab:
                    70:d5:3e:f5:b5:17:ba:ef:e1:f8:87:54:30:22:1f:
                    81:07:bf:f9:24:7f:8a:54:10:e9:5f:e6:99:50:04:
                    d4:3b:55:a9:f1:52:ad:12:2b:5a:da:5c:be:8c:3e:
                    5b:9e:b0:5a:19
                Exponent: 65537 (0x10001)
    Signature Algorithm: md5WithRSAEncryption
        07:57:bf:07:92:c2:8e:86:24:6b:0a:bf:e5:31:21:44:c3:60:
        02:a6:ac:9e:f7:db:7a:6e:fc:4f:d4:7b:54:18:80:47:d2:4a:
        63:0e:e3:f8:af:6e:58:e3:97:5a:2b:82:5d:76:20:d1:33:a0:
        f5:43:a1:d1:51:f4:ca:c8:b3:1a:66:4e:0e:55:df:d2:e8:fa:
        83:18:42:f5:ec:66:40:f0:39:e8:f9:d7:cf:f6:dd:e4:7b:69:
        dd:0c:92:d8:52:95:43:6f:29:3d:f0:8d:4c:dd:52:ea:6b:a0:
        39:0f:dc:59:a7:5c:37:6b:8b:05:44:b7:69:ea:a3:58:e0:4e:
        ce:d6
-----BEGIN CERTIFICATE-----
MIIB5jCCAU8CAQEwDQYJKoZIhvcNAQEEBQAwRDELMAkGA1UEBhMCU0UxEDAOBgNV
BAgTB1VwcHNhbGExEDAOBgNVBAcTB1VwcHNhbGExETAPBgNVBAoTCE15U1FMIEFC
MB4XDTA2MDUwMzA4NTUzOVoXDTA5MDEyNzA4NTUzOVowdzELMAkGA1UEBhMCU0Ux
EDAOBgNVBAgTB1VwcHNhbGExEDAOBgNVBAcTB1VwcHNhbGExETAPBgNVBAoTCE15
U1FMIEFCMTEwLwYJKoZIhvcNAQkBFiJhYnN0cmFjdC5teXNxbC5kZXZlbG9wZXJA
bXlzcWwuY29tMFwwDQYJKoZIhvcNAQEBBQADSwAwSAJBANjbaChJhE3WD1y8PZqr
cNU+9bUXuu/h+IdUMCIfgQe/+SR/ilQQ6V/mmVAE1DtVqfFSrRIrWtpcvow+W56w
WhkCAwEAATANBgkqhkiG9w0BAQQFAAOBgQAHV78HksKOhiRrCr/lMSFEw2ACpqye
99t6bvxP1HtUGIBH0kpjDuP4r25Y45daK4JddiDRM6D1Q6HRUfTKyLMaZk4OVd/S
6PqDGEL17GZA8Dno+dfP9t3ke2ndDJLYUpVDbyk98I1M3VLqa6A5D9xZp1w3a4sF
RLdp6qNY4E7O1g==
-----END CERTIFICATE-----
