Certificate:
    Data:
        Version: 3 (0x2)
        Serial Number: 1 (0x1)
        Signature Algorithm: md5WithRSAEncryption
        Issuer: C=SE, L=Uppsala, O=MySQL AB, CN=Abstract MySQL Developer/Email=abstract.mysql.developer@mysql.com
        Validity
            Not Before: Sep 12 16:21:19 2003 GMT
            Not After : Sep  9 16:21:19 2013 GMT
        Subject: C=SE, L=Uppsala, O=MySQL AB, CN=MySQL Client/Email=abstract.mysql.developer@mysql.com
        Subject Public Key Info:
            Public Key Algorithm: rsaEncryption
            RSA Public Key: (1024 bit)
                Modulus (1024 bit):
                    00:c4:03:0a:ee:e3:b1:12:fc:ee:b4:19:f4:e1:60:
                    1d:e0:28:c3:96:2d:df:82:69:cd:74:7c:54:58:d0:
                    ae:b3:59:3f:0c:19:1c:99:10:a6:12:c9:cf:3a:64:
                    05:43:8e:bf:d2:65:36:80:91:0b:65:b0:27:26:38:
                    c9:23:d8:36:a2:4a:f0:f7:c0:2f:68:38:70:01:27:
                    29:ff:b2:c5:52:e1:6b:f1:c8:d7:c3:5c:ee:f0:37:
                    6c:2a:9b:96:1a:05:9e:eb:33:a2:39:5a:77:66:62:
                    27:75:1f:2f:6f:38:da:e5:9f:78:af:ca:6b:22:3f:
                    57:2b:bc:a6:8f:47:d1:99:6f
                Exponent: 65537 (0x10001)
        X509v3 extensions:
            X509v3 Basic Constraints: 
                CA:FALSE
            Netscape Comment: 
                OpenSSL Generated Certificate
            X509v3 Subject Key Identifier: 
                80:81:A9:22:EB:AB:D6:CA:7E:3F:8D:BB:D1:AC:2A:F4:87:9D:13:29
            X509v3 Authority Key Identifier: 
                keyid:88:98:65:D9:F3:F2:8B:03:1D:66:60:61:23:FA:AD:73:6D:D3:68:92
                DirName:/C=SE/L=Uppsala/O=MySQL AB/CN=Abstract MySQL Developer/Email=abstract.mysql.developer@mysql.com
                serial:00

    Signature Algorithm: md5WithRSAEncryption
        86:17:1c:f3:9f:10:1b:75:47:03:ca:54:ea:ef:f7:15:54:8d:
        8f:58:c9:64:7d:de:2e:bf:ea:a6:5d:72:56:c9:81:be:bb:1c:
        78:a5:91:d6:f8:77:df:9d:d2:cb:94:d9:06:61:4f:05:21:22:
        2a:ea:9e:c3:8b:4d:fe:94:c7:98:61:cd:7e:88:19:c9:92:01:
        1f:10:5b:c6:16:95:99:9b:32:01:3a:89:df:fa:0a:89:ac:fa:
        b5:40:55:7a:ca:0a:bd:5d:8b:06:d8:7e:e1:44:8c:70:c8:63:
        c7:77:6a:37:3d:a4:ac:57:dc:00:c1:c1:f3:72:17:5b:50:95:
        ee:b7
-----BEGIN CERTIFICATE-----
MIIDkTCCAvqgAwIBAgIBATANBgkqhkiG9w0BAQQFADCBiDELMAkGA1UEBhMCU0Ux
EDAOBgNVBAcTB1VwcHNhbGExETAPBgNVBAoTCE15U1FMIEFCMSEwHwYDVQQDExhB
YnN0cmFjdCBNeVNRTCBEZXZlbG9wZXIxMTAvBgkqhkiG9w0BCQEWImFic3RyYWN0
Lm15c3FsLmRldmVsb3BlckBteXNxbC5jb20wHhcNMDMwOTEyMTYyMTE5WhcNMTMw
OTA5MTYyMTE5WjB8MQswCQYDVQQGEwJTRTEQMA4GA1UEBxMHVXBwc2FsYTERMA8G
A1UEChMITXlTUUwgQUIxFTATBgNVBAMTDE15U1FMIENsaWVudDExMC8GCSqGSIb3
DQEJARYiYWJzdHJhY3QubXlzcWwuZGV2ZWxvcGVyQG15c3FsLmNvbTCBnzANBgkq
hkiG9w0BAQEFAAOBjQAwgYkCgYEAxAMK7uOxEvzutBn04WAd4CjDli3fgmnNdHxU
WNCus1k/DBkcmRCmEsnPOmQFQ46/0mU2gJELZbAnJjjJI9g2okrw98AvaDhwAScp
/7LFUuFr8cjXw1zu8DdsKpuWGgWe6zOiOVp3ZmIndR8vbzja5Z94r8prIj9XK7ym
j0fRmW8CAwEAAaOCARQwggEQMAkGA1UdEwQCMAAwLAYJYIZIAYb4QgENBB8WHU9w
ZW5TU0wgR2VuZXJhdGVkIENlcnRpZmljYXRlMB0GA1UdDgQWBBSAgaki66vWyn4/
jbvRrCr0h50TKTCBtQYDVR0jBIGtMIGqgBSImGXZ8/KLAx1mYGEj+q1zbdNokqGB
jqSBizCBiDELMAkGA1UEBhMCU0UxEDAOBgNVBAcTB1VwcHNhbGExETAPBgNVBAoT
CE15U1FMIEFCMSEwHwYDVQQDExhBYnN0cmFjdCBNeVNRTCBEZXZlbG9wZXIxMTAv
BgkqhkiG9w0BCQEWImFic3RyYWN0Lm15c3FsLmRldmVsb3BlckBteXNxbC5jb22C
AQAwDQYJKoZIhvcNAQEEBQADgYEAhhcc858QG3VHA8pU6u/3FVSNj1jJZH3eLr/q
pl1yVsmBvrsceKWR1vh3353Sy5TZBmFPBSEiKuqew4tN/pTHmGHNfogZyZIBHxBb
xhaVmZsyATqJ3/oKiaz6tUBVesoKvV2LBth+4USMcMhjx3dqNz2krFfcAMHB83IX
W1CV7rc=
-----END CERTIFICATE-----
