Certificate:
    Data:
        Version: 3 (0x2)
        Serial Number: 3 (0x3)
        Signature Algorithm: md5WithRSAEncryption
        Issuer: C=FI, ST=Some-State, L=Helsinki, O=MySQL Finland AB, CN=Tonu Samuel/Email=tonu@mysql.com
        Validity
            Not Before: Jun 24 16:03:20 2001 GMT
            Not After : Jun 24 16:03:20 2002 GMT
        Subject: C=EE, ST=Some-State, L=Tallinn, O=MySQL demo client certificate, CN=Tonu Samuel/Email=tonu@mysql.com
        Subject Public Key Info:
            Public Key Algorithm: rsaEncryption
            RSA Public Key: (1024 bit)
                Modulus (1024 bit):
                    00:e8:d4:52:cd:4e:bb:96:16:3a:f0:89:6b:90:4c:
                    db:e0:30:75:5a:02:72:62:bf:ed:da:be:09:e8:80:
                    db:80:54:30:d6:75:ed:e3:10:a5:15:44:5b:29:91:
                    12:fe:0c:b7:76:4d:e9:5f:56:5c:45:3c:ad:b2:71:
                    2d:6a:7a:cb:bc:04:80:08:74:d6:7d:f6:7c:5c:76:
                    db:35:c4:f6:f5:d8:d4:89:9f:9d:cc:3f:4e:3f:73:
                    c1:3e:41:7e:4e:09:bf:ea:1a:d9:a2:13:0d:d1:0c:
                    da:d8:f4:9b:b8:54:21:17:ae:d7:b3:02:61:87:a9:
                    01:ff:f4:fe:9c:7a:fc:67:43
                Exponent: 65537 (0x10001)
        X509v3 extensions:
            X509v3 Basic Constraints: 
                CA:FALSE
            Netscape Comment: 
                OpenSSL Generated Certificate
            X509v3 Subject Key Identifier: 
                BC:FB:BB:8F:C4:85:BA:5F:A8:F2:C3:3D:C9:0F:DB:16:E7:13:BC:B2
            X509v3 Authority Key Identifier: 
                keyid:A5:0A:D6:72:B5:DF:E4:C2:2B:7B:07:5E:D3:4D:52:07:E1:83:6B:7F
                DirName:/C=FI/ST=Some-State/L=Helsinki/O=MySQL Finland AB/CN=Tonu Samuel/Email=tonu@mysql.com
                serial:00

    Signature Algorithm: md5WithRSAEncryption
        1c:e0:87:2c:2f:b3:a4:39:44:7f:96:7b:2f:c9:1f:91:84:0b:
        9f:d0:0a:f8:40:70:d0:dd:bd:91:0a:c6:d5:ac:8f:51:77:9c:
        35:28:e8:b6:5f:57:9e:5c:b5:9b:ae:5d:3d:7c:05:45:2e:89:
        3a:03:e1:f2:00:cb:c1:ed:3e:48:3b:5f:4e:50:d2:b4:a5:36:
        0f:1a:dc:79:49:1e:03:2f:27:c1:e4:62:d6:ef:3f:ab:2e:ab:
        dd:e5:bc:cb:20:a3:dd:ab:81:69:26:9c:03:42:1b:4c:b7:aa:
        57:6d:2a:de:c0:5e:6e:74:d0:83:90:ec:ad:bb:ba:f0:cc:cf:
        41:3d
-----BEGIN CERTIFICATE-----
MIIDoTCCAwqgAwIBAgIBAzANBgkqhkiG9w0BAQQFADCBhTELMAkGA1UEBhMCRkkx
EzARBgNVBAgTClNvbWUtU3RhdGUxETAPBgNVBAcTCEhlbHNpbmtpMRkwFwYDVQQK
ExBNeVNRTCBGaW5sYW5kIEFCMRQwEgYDVQQDEwtUb251IFNhbXVlbDEdMBsGCSqG
SIb3DQEJARYOdG9udUBteXNxbC5jb20wHhcNMDEwNjI0MTYwMzIwWhcNMDIwNjI0
MTYwMzIwWjCBkTELMAkGA1UEBhMCRUUxEzARBgNVBAgTClNvbWUtU3RhdGUxEDAO
BgNVBAcTB1RhbGxpbm4xJjAkBgNVBAoTHU15U1FMIGRlbW8gY2xpZW50IGNlcnRp
ZmljYXRlMRQwEgYDVQQDEwtUb251IFNhbXVlbDEdMBsGCSqGSIb3DQEJARYOdG9u
dUBteXNxbC5jb20wgZ8wDQYJKoZIhvcNAQEBBQADgY0AMIGJAoGBAOjUUs1Ou5YW
OvCJa5BM2+AwdVoCcmK/7dq+CeiA24BUMNZ17eMQpRVEWymREv4Mt3ZN6V9WXEU8
rbJxLWp6y7wEgAh01n32fFx22zXE9vXY1Imfncw/Tj9zwT5Bfk4Jv+oa2aITDdEM
2tj0m7hUIReu17MCYYepAf/0/px6/GdDAgMBAAGjggERMIIBDTAJBgNVHRMEAjAA
MCwGCWCGSAGG+EIBDQQfFh1PcGVuU1NMIEdlbmVyYXRlZCBDZXJ0aWZpY2F0ZTAd
BgNVHQ4EFgQUvPu7j8SFul+o8sM9yQ/bFucTvLIwgbIGA1UdIwSBqjCBp4AUpQrW
crXf5MIrewde001SB+GDa3+hgYukgYgwgYUxCzAJBgNVBAYTAkZJMRMwEQYDVQQI
EwpTb21lLVN0YXRlMREwDwYDVQQHEwhIZWxzaW5raTEZMBcGA1UEChMQTXlTUUwg
RmlubGFuZCBBQjEUMBIGA1UEAxMLVG9udSBTYW11ZWwxHTAbBgkqhkiG9w0BCQEW
DnRvbnVAbXlzcWwuY29tggEAMA0GCSqGSIb3DQEBBAUAA4GBABzghywvs6Q5RH+W
ey/JH5GEC5/QCvhAcNDdvZEKxtWsj1F3nDUo6LZfV55ctZuuXT18BUUuiToD4fIA
y8HtPkg7X05Q0rSlNg8a3HlJHgMvJ8HkYtbvP6suq93lvMsgo92rgWkmnANCG0y3
qldtKt7AXm500IOQ7K27uvDMz0E9
-----END CERTIFICATE-----
