Certificate:
    Data:
        Version: 1 (0x0)
        Serial Number: 1 (0x1)
        Signature Algorithm: md5WithRSAEncryption
        Issuer: C=SE, ST=Uppsala, L=Uppsala, O=MySQL AB
        Validity
            Not Before: May  3 08:54:13 2006 GMT
            Not After : Jan 27 08:54:13 2009 GMT
        Subject: C=SE, ST=Uppsala, L=Uppsala, O=MySQL AB, CN=localhost/emailAddress=abstract.mysql.developer@mysql.com
        Subject Public Key Info:
            Public Key Algorithm: rsaEncryption
            RSA Public Key: (512 bit)
                Modulus (512 bit):
                    00:d9:fd:da:b3:fb:7c:e0:b0:03:be:97:c6:a4:36:
                    ac:71:af:bb:2d:e5:84:ed:f3:8f:2b:eb:11:e5:aa:
                    66:ed:bf:62:6b:e3:ce:fa:80:ed:90:ff:b9:4a:39:
                    20:40:b6:f2:99:bf:2f:33:b5:f2:ec:3a:90:60:1d:
                    9e:94:7e:a4:1b
                Exponent: 65537 (0x10001)
    Signature Algorithm: md5WithRSAEncryption
        de:5e:35:cd:7b:11:e6:7c:c5:7c:d6:27:4e:72:12:49:42:eb:
        6f:2c:96:f3:f4:00:78:a7:4f:9f:2d:7b:d7:30:39:af:49:4d:
        df:b1:55:0d:30:be:23:6f:06:67:fd:dd:ba:98:66:36:c6:32:
        b7:ed:63:fc:aa:49:cd:4f:72:98:3b:13:0e:f6:28:d7:d4:eb:
        04:6b:dc:e8:c7:04:80:92:e4:04:86:0b:ed:32:25:76:1d:a9:
        5c:a9:2c:18:2c:bd:bc:15:ed:e1:76:96:4d:bb:0d:41:44:06:
        2c:ad:45:bb:db:61:ad:17:11:cb:49:70:67:eb:c6:27:d3:91:
        c8:f2
-----BEGIN CERTIFICATE-----
MIIB+zCCAWQCAQEwDQYJKoZIhvcNAQEEBQAwRDELMAkGA1UEBhMCU0UxEDAOBgNV
BAgTB1VwcHNhbGExEDAOBgNVBAcTB1VwcHNhbGExETAPBgNVBAoTCE15U1FMIEFC
MB4XDTA2MDUwMzA4NTQxM1oXDTA5MDEyNzA4NTQxM1owgYsxCzAJBgNVBAYTAlNF
MRAwDgYDVQQIEwdVcHBzYWxhMRAwDgYDVQQHEwdVcHBzYWxhMREwDwYDVQQKEwhN
eVNRTCBBQjESMBAGA1UEAxMJbG9jYWxob3N0MTEwLwYJKoZIhvcNAQkBFiJhYnN0
cmFjdC5teXNxbC5kZXZlbG9wZXJAbXlzcWwuY29tMFwwDQYJKoZIhvcNAQEBBQAD
SwAwSAJBANn92rP7fOCwA76XxqQ2rHGvuy3lhO3zjyvrEeWqZu2/YmvjzvqA7ZD/
uUo5IEC28pm/LzO18uw6kGAdnpR+pBsCAwEAATANBgkqhkiG9w0BAQQFAAOBgQDe
XjXNexHmfMV81idOchJJQutvLJbz9AB4p0+fLXvXMDmvSU3fsVUNML4jbwZn/d26
mGY2xjK37WP8qknNT3KYOxMO9ijX1OsEa9zoxwSAkuQEhgvtMiV2HalcqSwYLL28
Fe3hdpZNuw1BRAYsrUW722GtFxHLSXBn68Yn05HI8g==
-----END CERTIFICATE-----
