Certificate:
    Data:
        Version: 3 (0x2)
        Serial Number:
            e9:07:d1:01:94:ee:66:ca
        Signature Algorithm: md5WithRSAEncryption
        Issuer: C=SE, ST=Uppsala, L=Uppsala, O=MySQL AB, CN=localhost/emailAddress=abstract.mysql.developer@mysql.com
        Validity
            Not Before: Apr 18 15:35:37 2006 GMT
            Not After : Jan 12 15:35:37 2009 GMT
        Subject: C=SE, ST=Uppsala, L=Uppsala, O=MySQL AB, CN=localhost/emailAddress=abstract.mysql.developer@mysql.com
        Subject Public Key Info:
            Public Key Algorithm: rsaEncryption
            RSA Public Key: (1024 bit)
                Modulus (1024 bit):
                    00:e9:86:7a:55:84:88:4c:be:a4:f8:92:73:30:12:
                    49:0b:7a:85:87:39:34:39:0d:7d:0b:8d:18:c2:17:
                    95:13:52:d2:3f:55:10:57:c8:3f:5a:f5:b2:fa:8b:
                    d0:67:49:cc:aa:82:fc:9f:ce:00:b4:73:f3:36:d2:
                    3a:d3:c2:b0:0e:14:c3:d4:b2:21:74:a1:f0:31:81:
                    60:87:98:73:5c:10:c1:b1:1a:4d:f1:f3:b0:98:3f:
                    f0:d7:97:9b:2b:fd:d5:21:79:b2:2f:eb:64:15:c9:
                    9b:9d:fc:9e:2d:d4:f8:04:5b:ea:a9:75:4b:42:c3:
                    3d:0e:4d:2a:a8:b8:ca:99:8d
                Exponent: 65537 (0x10001)
        X509v3 extensions:
            X509v3 Subject Key Identifier: 
                6E:E4:9B:6A:C5:EA:E4:E6:C7:EF:D7:1E:C8:63:45:60:2B:1B:D4:D4
            X509v3 Authority Key Identifier: 
                keyid:6E:E4:9B:6A:C5:EA:E4:E6:C7:EF:D7:1E:C8:63:45:60:2B:1B:D4:D4
                DirName:/C=SE/ST=Uppsala/L=Uppsala/O=MySQL AB/CN=localhost/emailAddress=abstract.mysql.developer@mysql.com
                serial:E9:07:D1:01:94:EE:66:CA

            X509v3 Basic Constraints: 
                CA:TRUE
    Signature Algorithm: md5WithRSAEncryption
        1f:03:59:6e:ff:1f:9d:c7:19:9e:8e:b2:1a:c0:0b:9e:ee:94:
        35:77:2a:93:04:ea:d5:a8:fc:36:5a:5b:e3:1c:02:b8:cf:04:
        6e:21:b0:27:f6:96:6e:d6:8f:cd:02:cf:23:f3:e7:ff:6a:ee:
        a9:09:c5:c9:07:81:b6:d2:bc:bd:13:47:0d:7b:76:f6:8a:c4:
        76:24:f8:4c:4e:26:fc:d8:c0:1f:3d:40:19:43:8e:41:ab:99:
        3a:99:9b:24:7c:ae:78:f3:df:2f:a2:ed:8f:27:0a:0a:0b:04:
        bf:25:74:88:87:96:c8:68:d5:bc:5b:a0:ef:14:aa:53:6e:c4:
        a3:e3
-----BEGIN CERTIFICATE-----
MIIDijCCAvOgAwIBAgIJAOkH0QGU7mbKMA0GCSqGSIb3DQEBBAUAMIGLMQswCQYD
VQQGEwJTRTEQMA4GA1UECBMHVXBwc2FsYTEQMA4GA1UEBxMHVXBwc2FsYTERMA8G
A1UEChMITXlTUUwgQUIxEjAQBgNVBAMTCWxvY2FsaG9zdDExMC8GCSqGSIb3DQEJ
ARYiYWJzdHJhY3QubXlzcWwuZGV2ZWxvcGVyQG15c3FsLmNvbTAeFw0wNjA0MTgx
NTM1MzdaFw0wOTAxMTIxNTM1MzdaMIGLMQswCQYDVQQGEwJTRTEQMA4GA1UECBMH
VXBwc2FsYTEQMA4GA1UEBxMHVXBwc2FsYTERMA8GA1UEChMITXlTUUwgQUIxEjAQ
BgNVBAMTCWxvY2FsaG9zdDExMC8GCSqGSIb3DQEJARYiYWJzdHJhY3QubXlzcWwu
ZGV2ZWxvcGVyQG15c3FsLmNvbTCBnzANBgkqhkiG9w0BAQEFAAOBjQAwgYkCgYEA
6YZ6VYSITL6k+JJzMBJJC3qFhzk0OQ19C40YwheVE1LSP1UQV8g/WvWy+ovQZ0nM
qoL8n84AtHPzNtI608KwDhTD1LIhdKHwMYFgh5hzXBDBsRpN8fOwmD/w15ebK/3V
IXmyL+tkFcmbnfyeLdT4BFvqqXVLQsM9Dk0qqLjKmY0CAwEAAaOB8zCB8DAdBgNV
HQ4EFgQUbuSbasXq5ObH79ceyGNFYCsb1NQwgcAGA1UdIwSBuDCBtYAUbuSbasXq
5ObH79ceyGNFYCsb1NShgZGkgY4wgYsxCzAJBgNVBAYTAlNFMRAwDgYDVQQIEwdV
cHBzYWxhMRAwDgYDVQQHEwdVcHBzYWxhMREwDwYDVQQKEwhNeVNRTCBBQjESMBAG
A1UEAxMJbG9jYWxob3N0MTEwLwYJKoZIhvcNAQkBFiJhYnN0cmFjdC5teXNxbC5k
ZXZlbG9wZXJAbXlzcWwuY29tggkA6QfRAZTuZsowDAYDVR0TBAUwAwEB/zANBgkq
hkiG9w0BAQQFAAOBgQAfA1lu/x+dxxmejrIawAue7pQ1dyqTBOrVqPw2WlvjHAK4
zwRuIbAn9pZu1o/NAs8j8+f/au6pCcXJB4G20ry9E0cNe3b2isR2JPhMTib82MAf
PUAZQ45Bq5k6mZskfK54898vou2PJwoKCwS/JXSIh5bIaNW8W6DvFKpTbsSj4w==
-----END CERTIFICATE-----
