Certificate:
    Data:
        Version: 3 (0x2)
        Serial Number: 1 (0x1)
        Signature Algorithm: md5WithRSAEncryption
        Issuer: C=RU, ST=Some-State, L=Orenburg, O=MySQL AB, CN=Walrus/Email=walrus@mysql.com
        Validity
            Not Before: Aug  2 21:59:26 2002 GMT
            Not After : Aug  2 21:59:26 2003 GMT
        Subject: C=RU, L=Orenburg, O=MySQL AB, CN=server/Email=walrus@mysql.com
        Subject Public Key Info:
            Public Key Algorithm: rsaEncryption
            RSA Public Key: (1024 bit)
                Modulus (1024 bit):
                    00:bd:7d:f1:91:51:38:fe:4b:79:b5:ff:e0:41:ae:
                    0e:a8:bb:7b:60:42:95:01:75:e7:22:74:55:7d:74:
                    4d:50:51:0c:5e:09:4b:2b:0c:8e:3f:9f:14:3f:5e:
                    d9:25:36:9b:cc:77:35:30:e9:8c:bf:3b:bd:da:62:
                    85:4c:90:c8:de:71:2c:0a:7b:dc:e6:85:fd:b4:24:
                    88:a7:8f:03:3d:15:7c:59:3d:f8:73:f0:36:2a:b8:
                    80:7c:d8:c7:d6:1f:6d:b2:b7:b7:48:9f:24:56:81:
                    2c:2e:9c:b9:95:48:50:56:9f:1a:60:96:c4:c0:eb:
                    8d:2d:55:38:3f:6b:82:bc:b3
                Exponent: 65537 (0x10001)
        X509v3 extensions:
            X509v3 Basic Constraints: 
                CA:FALSE
            Netscape Comment: 
                OpenSSL Generated Certificate
            X509v3 Subject Key Identifier: 
                C9:D0:D2:F7:17:79:27:1C:4B:C9:E7:92:D5:5E:8C:7E:F2:FE:A7:B7
            X509v3 Authority Key Identifier: 
                keyid:D9:D8:6A:7D:AB:CE:10:62:1A:16:FC:E9:6A:F4:DC:F1:66:AC:D0:B9
                DirName:/C=RU/ST=Some-State/L=Orenburg/O=MySQL AB/CN=Walrus/Email=walrus@mysql.com
                serial:00

    Signature Algorithm: md5WithRSAEncryption
        62:77:bc:16:dc:4c:70:63:4d:03:ce:19:5e:c4:6c:31:0e:57:
        26:d8:6e:25:08:f2:01:ae:98:59:0a:ba:b7:32:c0:39:69:b8:
        4b:aa:59:7c:97:72:4e:50:02:ee:ef:d6:d6:62:b8:25:36:91:
        b6:3b:8f:6f:2f:3c:d8:9d:b7:cf:8f:f6:29:50:e9:31:54:77:
        2b:7b:21:72:0f:60:4c:d4:1c:bb:c4:46:e5:fd:a7:5f:ea:46:
        e4:df:e9:95:77:2d:91:f8:3b:33:78:83:5d:10:de:98:7c:38:
        91:27:f6:52:8a:b6:54:f1:0f:7a:f0:1d:da:a5:22:d2:75:cc:
        4c:c3
-----BEGIN CERTIFICATE-----
MIIDWTCCAsKgAwIBAgIBATANBgkqhkiG9w0BAQQFADB6MQswCQYDVQQGEwJSVTET
MBEGA1UECBMKU29tZS1TdGF0ZTERMA8GA1UEBxMIT3JlbmJ1cmcxETAPBgNVBAoT
CE15U1FMIEFCMQ8wDQYDVQQDEwZXYWxydXMxHzAdBgkqhkiG9w0BCQEWEHdhbHJ1
c0BteXNxbC5jb20wHhcNMDIwODAyMjE1OTI2WhcNMDMwODAyMjE1OTI2WjBlMQsw
CQYDVQQGEwJSVTERMA8GA1UEBxMIT3JlbmJ1cmcxETAPBgNVBAoTCE15U1FMIEFC
MQ8wDQYDVQQDEwZzZXJ2ZXIxHzAdBgkqhkiG9w0BCQEWEHdhbHJ1c0BteXNxbC5j
b20wgZ8wDQYJKoZIhvcNAQEBBQADgY0AMIGJAoGBAL198ZFROP5LebX/4EGuDqi7
e2BClQF15yJ0VX10TVBRDF4JSysMjj+fFD9e2SU2m8x3NTDpjL87vdpihUyQyN5x
LAp73OaF/bQkiKePAz0VfFk9+HPwNiq4gHzYx9YfbbK3t0ifJFaBLC6cuZVIUFaf
GmCWxMDrjS1VOD9rgryzAgMBAAGjggECMIH/MAkGA1UdEwQCMAAwLAYJYIZIAYb4
QgENBB8WHU9wZW5TU0wgR2VuZXJhdGVkIENlcnRpZmljYXRlMB0GA1UdDgQWBBTJ
0NL3F3knHEvJ55LVXox+8v6ntzCBpAYDVR0jBIGcMIGZgBTZ2Gp9q84QYhoW/Olq
9NzxZqzQuaF+pHwwejELMAkGA1UEBhMCUlUxEzARBgNVBAgTClNvbWUtU3RhdGUx
ETAPBgNVBAcTCE9yZW5idXJnMREwDwYDVQQKEwhNeVNRTCBBQjEPMA0GA1UEAxMG
V2FscnVzMR8wHQYJKoZIhvcNAQkBFhB3YWxydXNAbXlzcWwuY29tggEAMA0GCSqG
SIb3DQEBBAUAA4GBAGJ3vBbcTHBjTQPOGV7EbDEOVybYbiUI8gGumFkKurcywDlp
uEuqWXyXck5QAu7v1tZiuCU2kbY7j28vPNidt8+P9ilQ6TFUdyt7IXIPYEzUHLvE
RuX9p1/qRuTf6ZV3LZH4OzN4g10Q3ph8OJEn9lKKtlTxD3rwHdqlItJ1zEzD
-----END CERTIFICATE-----
