Certificate:
    Data:
        Version: 3 (0x2)
        Serial Number: 2 (0x2)
        Signature Algorithm: md5WithRSAEncryption
        Issuer: C=FI, ST=Some-State, L=Helsinki, O=MySQL Finland AB, CN=Tonu Samuel/Email=tonu@mysql.com
        Validity
            Not Before: Jun 24 16:02:28 2001 GMT
            Not After : Jun 24 16:02:28 2002 GMT
        Subject: C=EE, ST=Some-State, L=Tallinn, O=MySQL server demo certificate, CN=Tonu Samuel/Email=tonu@mysql.com
        Subject Public Key Info:
            Public Key Algorithm: rsaEncryption
            RSA Public Key: (1024 bit)
                Modulus (1024 bit):
                    00:9e:ac:8d:d8:1d:9c:b2:fd:88:96:2c:ba:42:53:
                    fa:5d:bd:85:8a:e5:ca:d3:0f:c0:01:3c:f2:92:46:
                    4f:d9:80:ae:2a:89:cf:ef:e8:d4:65:fc:f6:f5:3a:
                    26:4c:29:db:06:fa:34:a1:87:f3:97:b5:3c:94:f1:
                    84:05:ac:ad:57:25:d9:02:db:00:71:e0:a9:aa:b4:
                    1d:29:36:5e:a9:a4:0d:f2:45:b9:83:74:2b:45:f3:
                    e2:23:bc:e7:5c:e6:11:b6:f6:dd:c4:ac:ed:65:42:
                    2c:39:47:2a:c9:eb:5f:45:03:10:ab:23:bc:ca:5c:
                    82:9a:b7:b3:6d:67:18:d2:c7
                Exponent: 65537 (0x10001)
        X509v3 extensions:
            X509v3 Basic Constraints: 
                CA:FALSE
            Netscape Comment: 
                OpenSSL Generated Certificate
            X509v3 Subject Key Identifier: 
                94:68:BF:DA:F6:E2:09:EF:3A:C8:27:AE:D7:B7:02:F0:DC:4B:C1:3B
            X509v3 Authority Key Identifier: 
                keyid:A5:0A:D6:72:B5:DF:E4:C2:2B:7B:07:5E:D3:4D:52:07:E1:83:6B:7F
                DirName:/C=FI/ST=Some-State/L=Helsinki/O=MySQL Finland AB/CN=Tonu Samuel/Email=tonu@mysql.com
                serial:00

    Signature Algorithm: md5WithRSAEncryption
        8c:1a:90:70:f6:1a:70:0e:c9:28:93:74:e2:2b:b8:2a:d0:ce:
        40:15:e8:af:44:f8:89:16:20:f5:c2:b9:ed:aa:4e:3c:40:e2:
        9c:62:aa:48:98:ac:17:84:ef:35:72:59:43:09:35:17:c5:9a:
        3e:3d:ef:97:bf:57:f2:2a:f6:56:5d:a4:7c:68:58:b9:d6:9b:
        0f:57:0e:55:22:17:b0:b7:77:27:4f:da:b3:88:c1:6d:d6:8f:
        31:ec:0d:a2:25:60:66:2f:0f:86:8a:d6:08:b8:71:b1:b5:70:
        60:04:56:96:ff:bd:5e:ed:94:bc:44:bd:24:e0:2f:90:e5:23:
        51:4e
-----BEGIN CERTIFICATE-----
MIIDoTCCAwqgAwIBAgIBAjANBgkqhkiG9w0BAQQFADCBhTELMAkGA1UEBhMCRkkx
EzARBgNVBAgTClNvbWUtU3RhdGUxETAPBgNVBAcTCEhlbHNpbmtpMRkwFwYDVQQK
ExBNeVNRTCBGaW5sYW5kIEFCMRQwEgYDVQQDEwtUb251IFNhbXVlbDEdMBsGCSqG
SIb3DQEJARYOdG9udUBteXNxbC5jb20wHhcNMDEwNjI0MTYwMjI4WhcNMDIwNjI0
MTYwMjI4WjCBkTELMAkGA1UEBhMCRUUxEzARBgNVBAgTClNvbWUtU3RhdGUxEDAO
BgNVBAcTB1RhbGxpbm4xJjAkBgNVBAoTHU15U1FMIHNlcnZlciBkZW1vIGNlcnRp
ZmljYXRlMRQwEgYDVQQDEwtUb251IFNhbXVlbDEdMBsGCSqGSIb3DQEJARYOdG9u
dUBteXNxbC5jb20wgZ8wDQYJKoZIhvcNAQEBBQADgY0AMIGJAoGBAJ6sjdgdnLL9
iJYsukJT+l29hYrlytMPwAE88pJGT9mAriqJz+/o1GX89vU6Jkwp2wb6NKGH85e1
PJTxhAWsrVcl2QLbAHHgqaq0HSk2XqmkDfJFuYN0K0Xz4iO851zmEbb23cSs7WVC
LDlHKsnrX0UDEKsjvMpcgpq3s21nGNLHAgMBAAGjggERMIIBDTAJBgNVHRMEAjAA
MCwGCWCGSAGG+EIBDQQfFh1PcGVuU1NMIEdlbmVyYXRlZCBDZXJ0aWZpY2F0ZTAd
BgNVHQ4EFgQUlGi/2vbiCe86yCeu17cC8NxLwTswgbIGA1UdIwSBqjCBp4AUpQrW
crXf5MIrewde001SB+GDa3+hgYukgYgwgYUxCzAJBgNVBAYTAkZJMRMwEQYDVQQI
EwpTb21lLVN0YXRlMREwDwYDVQQHEwhIZWxzaW5raTEZMBcGA1UEChMQTXlTUUwg
RmlubGFuZCBBQjEUMBIGA1UEAxMLVG9udSBTYW11ZWwxHTAbBgkqhkiG9w0BCQEW
DnRvbnVAbXlzcWwuY29tggEAMA0GCSqGSIb3DQEBBAUAA4GBAIwakHD2GnAOySiT
dOIruCrQzkAV6K9E+IkWIPXCue2qTjxA4pxiqkiYrBeE7zVyWUMJNRfFmj4975e/
V/Iq9lZdpHxoWLnWmw9XDlUiF7C3dydP2rOIwW3WjzHsDaIlYGYvD4aK1gi4cbG1
cGAEVpb/vV7tlLxEvSTgL5DlI1FO
-----END CERTIFICATE-----
