Certificate:
    Data:
        Version: 3 (0x2)
        Serial Number: 1 (0x1)
        Signature Algorithm: md5WithRSAEncryption
        Issuer: C=SE, L=Uppsala, O=MySQL AB, CN=Abstract MySQL Developer/Email=abstract.mysql.developer@mysql.com
        Validity
            Not Before: Aug  7 11:39:27 2003 GMT
            Not After : Aug  4 11:39:27 2013 GMT
        Subject: C=SE, L=Uppsala, O=MySQL AB, CN=MySQL Server/Email=abstract.mysql.developer@mysql.com
        Subject Public Key Info:
            Public Key Algorithm: rsaEncryption
            RSA Public Key: (1024 bit)
                Modulus (1024 bit):
                    00:e9:86:7a:55:84:88:4c:be:a4:f8:92:73:30:12:
                    49:0b:7a:85:87:39:34:39:0d:7d:0b:8d:18:c2:17:
                    95:13:52:d2:3f:55:10:57:c8:3f:5a:f5:b2:fa:8b:
                    d0:67:49:cc:aa:82:fc:9f:ce:00:b4:73:f3:36:d2:
                    3a:d3:c2:b0:0e:14:c3:d4:b2:21:74:a1:f0:31:81:
                    60:87:98:73:5c:10:c1:b1:1a:4d:f1:f3:b0:98:3f:
                    f0:d7:97:9b:2b:fd:d5:21:79:b2:2f:eb:64:15:c9:
                    9b:9d:fc:9e:2d:d4:f8:04:5b:ea:a9:75:4b:42:c3:
                    3d:0e:4d:2a:a8:b8:ca:99:8d
                Exponent: 65537 (0x10001)
        X509v3 extensions:
            X509v3 Basic Constraints: 
                CA:FALSE
            Netscape Comment: 
                OpenSSL Generated Certificate
            X509v3 Subject Key Identifier: 
                6E:E4:9B:6A:C5:EA:E4:E6:C7:EF:D7:1E:C8:63:45:60:2B:1B:D4:D4
            X509v3 Authority Key Identifier: 
                keyid:95:4A:41:3E:F1:5C:12:B4:7B:3E:9F:3B:0C:23:66:90:3D:7F:4E:D8
                DirName:/C=SE/L=Uppsala/O=MySQL AB/CN=Abstract MySQL Developer/Email=abstract.mysql.developer@mysql.com
                serial:00

    Signature Algorithm: md5WithRSAEncryption
        7c:b6:9c:fc:ea:9e:e6:88:32:f5:24:81:9b:89:c0:13:fa:75:
        18:51:af:77:ae:b8:4e:12:5f:48:ab:0c:e6:c5:a4:87:93:6e:
        98:97:f5:f3:d3:0b:e0:fc:5e:34:3e:f2:93:58:73:97:b6:a7:
        66:96:81:cd:73:48:f3:75:24:64:61:13:78:3e:ed:df:7c:4d:
        fa:2e:3a:64:99:12:24:9e:a2:51:5c:23:85:0b:0c:bb:f5:8e:
        89:80:27:ba:7c:d2:68:90:ff:1f:68:2e:1b:fd:06:bc:c8:41:
        d7:b2:be:9c:94:5c:6d:1e:96:3b:75:bc:12:f0:44:bd:36:00:
        84:cd
-----BEGIN CERTIFICATE-----
MIIDkTCCAvqgAwIBAgIBATANBgkqhkiG9w0BAQQFADCBiDELMAkGA1UEBhMCU0Ux
EDAOBgNVBAcTB1VwcHNhbGExETAPBgNVBAoTCE15U1FMIEFCMSEwHwYDVQQDExhB
YnN0cmFjdCBNeVNRTCBEZXZlbG9wZXIxMTAvBgkqhkiG9w0BCQEWImFic3RyYWN0
Lm15c3FsLmRldmVsb3BlckBteXNxbC5jb20wHhcNMDMwODA3MTEzOTI3WhcNMTMw
ODA0MTEzOTI3WjB8MQswCQYDVQQGEwJTRTEQMA4GA1UEBxMHVXBwc2FsYTERMA8G
A1UEChMITXlTUUwgQUIxFTATBgNVBAMTDE15U1FMIFNlcnZlcjExMC8GCSqGSIb3
DQEJARYiYWJzdHJhY3QubXlzcWwuZGV2ZWxvcGVyQG15c3FsLmNvbTCBnzANBgkq
hkiG9w0BAQEFAAOBjQAwgYkCgYEA6YZ6VYSITL6k+JJzMBJJC3qFhzk0OQ19C40Y
wheVE1LSP1UQV8g/WvWy+ovQZ0nMqoL8n84AtHPzNtI608KwDhTD1LIhdKHwMYFg
h5hzXBDBsRpN8fOwmD/w15ebK/3VIXmyL+tkFcmbnfyeLdT4BFvqqXVLQsM9Dk0q
qLjKmY0CAwEAAaOCARQwggEQMAkGA1UdEwQCMAAwLAYJYIZIAYb4QgENBB8WHU9w
ZW5TU0wgR2VuZXJhdGVkIENlcnRpZmljYXRlMB0GA1UdDgQWBBRu5Jtqxerk5sfv
1x7IY0VgKxvU1DCBtQYDVR0jBIGtMIGqgBSVSkE+8VwStHs+nzsMI2aQPX9O2KGB
jqSBizCBiDELMAkGA1UEBhMCU0UxEDAOBgNVBAcTB1VwcHNhbGExETAPBgNVBAoT
CE15U1FMIEFCMSEwHwYDVQQDExhBYnN0cmFjdCBNeVNRTCBEZXZlbG9wZXIxMTAv
BgkqhkiG9w0BCQEWImFic3RyYWN0Lm15c3FsLmRldmVsb3BlckBteXNxbC5jb22C
AQAwDQYJKoZIhvcNAQEEBQADgYEAfLac/Oqe5ogy9SSBm4nAE/p1GFGvd664ThJf
SKsM5sWkh5NumJf189ML4PxeND7yk1hzl7anZpaBzXNI83UkZGETeD7t33xN+i46
ZJkSJJ6iUVwjhQsMu/WOiYAnunzSaJD/H2guG/0GvMhB17K+nJRcbR6WO3W8EvBE
vTYAhM0=
-----END CERTIFICATE-----
