Certificate:
    Data:
        Version: 3 (0x2)
        Serial Number: 18344029820145564920 (0xfe9315ee3af2fcf8)
    Signature Algorithm: sha1WithRSAEncryption
        Issuer: C=SE, ST=Uppsala, L=Uppsala, O=MySQL AB
        Validity
            Not Before: Jan 29 13:33:36 2015 GMT
            Not After : Jan 24 13:33:36 2035 GMT
        Subject: C=SE, ST=Uppsala, L=Uppsala, O=MySQL AB
        Subject Public Key Info:
            Public Key Algorithm: rsaEncryption
                Public-Key: (2048 bit)
                Modulus:
                    00:ad:79:3b:d1:c4:f3:fd:72:e8:4a:9e:54:db:44:
                    86:c7:57:a9:53:2e:01:5a:5b:04:b8:b7:15:02:28:
                    b2:e8:8a:8d:0e:32:29:a6:cc:63:00:fb:e4:7a:ec:
                    27:b0:09:8f:4d:34:95:c5:9e:2e:92:20:8b:ec:88:
                    d3:08:75:c7:c0:61:46:60:79:bb:0f:5f:e4:08:d7:
                    b2:20:08:1a:71:a9:ea:f2:d6:55:40:26:82:9b:2c:
                    6a:00:66:74:58:ea:e8:6c:77:74:81:10:3b:78:7f:
                    20:75:9c:ac:7a:63:af:0e:b6:7b:e8:94:13:00:b8:
                    7d:33:7a:c7:49:1f:b2:84:ce:0d:89:4a:97:ee:61:
                    0a:1d:8b:a7:8b:45:90:dc:cc:e6:56:dc:aa:28:b2:
                    cb:83:09:e7:7b:9a:7c:3e:da:4f:11:d0:b2:95:0d:
                    96:c0:b0:41:63:2d:2b:45:2f:6d:46:38:5a:b0:93:
                    e6:07:af:d1:2f:15:ff:84:f3:05:62:a5:28:1a:a4:
                    40:23:3d:c6:77:60:2c:55:7d:fd:af:da:4a:e8:fb:
                    16:03:9a:67:4b:76:a6:ec:96:ba:46:86:f2:fb:7c:
                    eb:2c:59:5c:af:e7:79:50:26:05:d4:71:c3:d5:62:
                    d5:2b:17:35:d3:32:4e:b4:df:30:7d:8b:fd:ba:c3:
                    a6:5d
                Exponent: 65537 (0x10001)
        X509v3 extensions:
            X509v3 Subject Key Identifier: 
                D0:25:36:E4:E6:DB:8B:6E:4F:8A:4D:20:48:A4:21:3A:58:7E:EF:C4
            X509v3 Authority Key Identifier: 
                keyid:D0:25:36:E4:E6:DB:8B:6E:4F:8A:4D:20:48:A4:21:3A:58:7E:EF:C4

            X509v3 Basic Constraints: 
                CA:TRUE
    Signature Algorithm: sha1WithRSAEncryption
         8d:9f:56:93:67:4b:77:e1:4c:f0:3c:6b:9c:8a:a0:a5:3d:5d:
         a7:21:72:5e:bc:4c:88:16:61:95:3d:e6:34:da:a6:b0:8c:6e:
         94:4c:69:ea:c6:8a:fa:2c:3d:bf:f9:8e:b5:d1:69:ac:a1:46:
         12:95:bc:fd:67:21:1e:ca:0f:49:77:f8:54:29:aa:06:5b:08:
         0b:8e:0b:4f:9d:52:da:03:9e:a1:31:1b:4a:bb:df:cb:d7:ba:
         b1:20:d7:77:bc:3b:87:e4:ae:46:59:13:88:cd:76:ab:15:68:
         c5:90:d7:01:fb:7b:16:30:7f:f8:1e:c5:3d:a3:e2:61:d9:35:
         fe:70:af:9a:47:12:59:26:27:b1:f6:a2:d8:99:80:a1:a4:a3:
         a3:77:ad:40:90:8c:4e:7e:83:b0:c0:0e:fb:0b:c3:9f:ac:8d:
         ee:65:fe:7d:85:2b:b3:93:62:56:50:f3:ca:68:68:76:37:9d:
         e7:85:13:45:c1:c8:9e:c6:ba:eb:ef:24:85:e8:47:31:82:53:
         1b:c4:66:b3:c3:e6:89:5f:3e:18:9f:f5:ed:66:19:9e:57:5b:
         3d:6a:2f:fb:c2:e3:5a:40:d0:5b:2e:ac:f6:a4:c6:5b:ee:a5:
         76:a0:af:a8:c0:c0:e1:2f:78:6c:7b:fa:fe:a8:2d:8b:cf:2b:
         c8:87:ee:09
-----BEGIN CERTIFICATE-----
MIIDWzCCAkOgAwIBAgIJAP6TFe468vz4MA0GCSqGSIb3DQEBBQUAMEQxCzAJBgNV
BAYTAlNFMRAwDgYDVQQIDAdVcHBzYWxhMRAwDgYDVQQHDAdVcHBzYWxhMREwDwYD
VQQKDAhNeVNRTCBBQjAeFw0xNTAxMjkxMzMzMzZaFw0zNTAxMjQxMzMzMzZaMEQx
CzAJBgNVBAYTAlNFMRAwDgYDVQQIDAdVcHBzYWxhMRAwDgYDVQQHDAdVcHBzYWxh
MREwDwYDVQQKDAhNeVNRTCBBQjCCASIwDQYJKoZIhvcNAQEBBQADggEPADCCAQoC
ggEBAK15O9HE8/1y6EqeVNtEhsdXqVMuAVpbBLi3FQIosuiKjQ4yKabMYwD75Hrs
J7AJj000lcWeLpIgi+yI0wh1x8BhRmB5uw9f5AjXsiAIGnGp6vLWVUAmgpssagBm
dFjq6Gx3dIEQO3h/IHWcrHpjrw62e+iUEwC4fTN6x0kfsoTODYlKl+5hCh2Lp4tF
kNzM5lbcqiiyy4MJ53uafD7aTxHQspUNlsCwQWMtK0UvbUY4WrCT5gev0S8V/4Tz
BWKlKBqkQCM9xndgLFV9/a/aSuj7FgOaZ0t2puyWukaG8vt86yxZXK/neVAmBdRx
w9Vi1SsXNdMyTrTfMH2L/brDpl0CAwEAAaNQME4wHQYDVR0OBBYEFNAlNuTm24tu
T4pNIEikITpYfu/EMB8GA1UdIwQYMBaAFNAlNuTm24tuT4pNIEikITpYfu/EMAwG
A1UdEwQFMAMBAf8wDQYJKoZIhvcNAQEFBQADggEBAI2fVpNnS3fhTPA8a5yKoKU9
Xachcl68TIgWYZU95jTaprCMbpRMaerGivosPb/5jrXRaayhRhKVvP1nIR7KD0l3
+FQpqgZbCAuOC0+dUtoDnqExG0q738vXurEg13e8O4fkrkZZE4jNdqsVaMWQ1wH7
exYwf/gexT2j4mHZNf5wr5pHElkmJ7H2otiZgKGko6N3rUCQjE5+g7DADvsLw5+s
je5l/n2FK7OTYlZQ88poaHY3neeFE0XByJ7GuuvvJIXoRzGCUxvEZrPD5olfPhif
9e1mGZ5XWz1qL/vC41pA0FsurPakxlvupXagr6jAwOEveGx7+v6oLYvPK8iH7gk=
-----END CERTIFICATE-----
