Certificate:
    Data:
        Version: 3 (0x2)
        Serial Number: 11580370790696127632 (0xa0b5bde0f2c08c90)
    Signature Algorithm: sha1WithRSAEncryption
        Issuer: CN=cacert, C=FI, ST=Helsinki, L=Helsinki, O=MariaDB
        Validity
            Not Before: Apr 25 14:55:05 2015 GMT
            Not After : Apr 20 14:55:05 2035 GMT
        Subject: CN=cacert, C=FI, ST=Helsinki, L=Helsinki, O=MariaDB
        Subject Public Key Info:
            Public Key Algorithm: rsaEncryption
                Public-Key: (2048 bit)
                Modulus:
                    00:c0:1f:90:7c:2b:c2:ea:01:93:ce:e0:c5:72:e8:
                    1c:06:bd:63:4e:b6:d2:c6:00:32:13:27:42:9e:c9:
                    3c:91:33:4d:15:90:67:7d:9d:d8:be:9b:12:e2:f6:
                    1b:46:81:4a:8b:10:c5:b8:14:53:ab:6a:2c:c3:7f:
                    66:87:6c:0e:18:51:4e:9c:93:7a:6d:a1:d4:06:47:
                    58:61:a6:04:21:2c:bd:74:7a:e4:68:45:fe:91:fe:
                    fb:a6:29:47:ec:c5:c3:88:c8:c9:e7:d7:c6:1a:0d:
                    b8:f5:c5:02:57:25:01:cc:d5:8c:37:46:58:c6:71:
                    30:ee:63:38:99:84:5e:9e:3c:af:40:d4:f0:f2:12:
                    44:6e:2f:4d:cd:f9:da:4d:0e:1f:a6:fe:35:c3:9d:
                    40:08:82:5e:6f:7d:4d:09:16:7d:a1:78:d6:9f:9f:
                    44:d6:b1:ad:e7:50:25:1a:f3:4e:16:92:4a:17:5e:
                    0b:e1:c8:9f:62:22:c4:e2:01:96:63:ed:37:a2:e5:
                    70:b9:dc:c8:8e:c4:fe:00:21:f5:b9:48:c0:43:55:
                    4a:d8:0c:9d:ce:d6:60:30:bb:81:31:c8:e9:0e:aa:
                    1c:18:3d:e4:10:47:42:17:c0:4d:fb:f5:d9:c2:e4:
                    07:33:f7:15:94:63:6d:11:ad:4f:d4:1d:11:41:c1:
                    e2:dd
                Exponent: 65537 (0x10001)
        X509v3 extensions:
            X509v3 Subject Key Identifier: 
                C7:2C:01:95:1A:F5:3E:CD:04:A6:24:35:35:04:D9:A7:16:01:2A:79
            X509v3 Authority Key Identifier: 
                keyid:C7:2C:01:95:1A:F5:3E:CD:04:A6:24:35:35:04:D9:A7:16:01:2A:79

            X509v3 Basic Constraints: 
                CA:TRUE
    Signature Algorithm: sha1WithRSAEncryption
         40:6f:6a:54:f3:29:30:48:46:bd:da:46:71:64:52:14:a7:c2:
         34:b7:5e:1e:42:3d:e7:47:92:cd:87:e7:9d:5d:1a:82:77:82:
         62:32:d4:9d:b6:44:11:dc:88:78:38:a5:d3:1f:1e:be:c2:d6:
         14:b0:58:35:cd:66:22:43:97:ba:bb:e3:44:4f:9d:75:14:9f:
         6f:37:d3:50:07:09:36:bc:58:92:e8:fe:c0:a8:ba:29:55:65:
         e2:6f:8f:ab:a5:1d:4f:56:37:de:c7:b4:39:20:4c:a8:4c:db:
         56:51:12:7e:e7:7f:83:9d:c4:c7:72:8f:6f:83:f0:af:e3:37:
         1c:40:fe:5e:38:26:2f:05:46:a7:0c:a5:81:79:d6:9c:9c:d7:
         56:eb:96:fe:c7:ae:8e:4f:5e:4a:6c:3a:fa:68:be:65:60:a2:
         d3:3f:07:76:45:b3:95:3e:11:ef:3a:0e:6f:73:47:4c:90:dd:
         0b:36:b4:22:df:62:8d:58:d2:a6:34:5b:f0:06:5d:cd:bf:52:
         fa:ee:9b:4f:e8:79:18:6e:1c:6e:5f:96:10:6d:2f:02:1b:dd:
         bf:14:c9:32:3c:83:a5:6e:56:56:78:9d:ce:84:50:a4:df:cc:
         b5:a9:b1:ec:09:07:74:02:27:7a:9d:d2:96:a9:80:95:9a:f2:
         8c:e9:ef:99
-----BEGIN CERTIFICATE-----
MIIDfzCCAmegAwIBAgIJAKC1veDywIyQMA0GCSqGSIb3DQEBBQUAMFYxDzANBgNV
BAMMBmNhY2VydDELMAkGA1UEBhMCRkkxETAPBgNVBAgMCEhlbHNpbmtpMREwDwYD
VQQHDAhIZWxzaW5raTEQMA4GA1UECgwHTWFyaWFEQjAeFw0xNTA0MjUxNDU1MDVa
Fw0zNTA0MjAxNDU1MDVaMFYxDzANBgNVBAMMBmNhY2VydDELMAkGA1UEBhMCRkkx
ETAPBgNVBAgMCEhlbHNpbmtpMREwDwYDVQQHDAhIZWxzaW5raTEQMA4GA1UECgwH
TWFyaWFEQjCCASIwDQYJKoZIhvcNAQEBBQADggEPADCCAQoCggEBAMAfkHwrwuoB
k87gxXLoHAa9Y0620sYAMhMnQp7JPJEzTRWQZ32d2L6bEuL2G0aBSosQxbgUU6tq
LMN/ZodsDhhRTpyTem2h1AZHWGGmBCEsvXR65GhF/pH++6YpR+zFw4jIyefXxhoN
uPXFAlclAczVjDdGWMZxMO5jOJmEXp48r0DU8PISRG4vTc352k0OH6b+NcOdQAiC
Xm99TQkWfaF41p+fRNaxredQJRrzThaSShdeC+HIn2IixOIBlmPtN6LlcLncyI7E
/gAh9blIwENVStgMnc7WYDC7gTHI6Q6qHBg95BBHQhfATfv12cLkBzP3FZRjbRGt
T9QdEUHB4t0CAwEAAaNQME4wHQYDVR0OBBYEFMcsAZUa9T7NBKYkNTUE2acWASp5
MB8GA1UdIwQYMBaAFMcsAZUa9T7NBKYkNTUE2acWASp5MAwGA1UdEwQFMAMBAf8w
DQYJKoZIhvcNAQEFBQADggEBAEBvalTzKTBIRr3aRnFkUhSnwjS3Xh5CPedHks2H
551dGoJ3gmIy1J22RBHciHg4pdMfHr7C1hSwWDXNZiJDl7q740RPnXUUn28301AH
CTa8WJLo/sCouilVZeJvj6ulHU9WN97HtDkgTKhM21ZREn7nf4OdxMdyj2+D8K/j
NxxA/l44Ji8FRqcMpYF51pyc11brlv7Hro5PXkpsOvpovmVgotM/B3ZFs5U+Ee86
Dm9zR0yQ3Qs2tCLfYo1Y0qY0W/AGXc2/Uvrum0/oeRhuHG5flhBtLwIb3b8UyTI8
g6VuVlZ4nc6EUKTfzLWpsewJB3QCJ3qd0papgJWa8ozp75k=
-----END CERTIFICATE-----
