Certificate:
    Data:
        Version: 3 (0x2)
        Serial Number:
            cb:73:4b:30:a0:cb:f7:d9
        Signature Algorithm: sha1WithRSAEncryption
        Issuer: C=SE, ST=Uppsala, O=MySQL AB/emailAddress=abstract.mysql.developer@mysql.com
        Validity
            Not Before: Jan 26 22:32:38 2010 GMT
            Not After : Jan 26 22:32:38 2011 GMT
        Subject: C=SE, ST=Uppsala, O=MySQL AB/emailAddress=abstract.mysql.developer@mysql.com
        Subject Public Key Info:
            Public Key Algorithm: rsaEncryption
            RSA Public Key: (512 bit)
                Modulus (512 bit):
                    00:e1:52:30:2c:d9:be:64:28:91:5d:7a:fd:d9:e9:
                    14:35:7a:d2:94:4e:91:46:e0:db:9f:6b:79:f4:4c:
                    ac:6e:07:61:34:86:74:62:a7:a8:44:af:fa:87:87:
                    a8:7d:42:61:ff:ab:50:d4:7b:bf:75:fa:d5:d5:b3:
                    74:fb:56:1e:37
                Exponent: 65537 (0x10001)
        X509v3 extensions:
            X509v3 Subject Key Identifier: 
                58:30:B5:9B:2C:05:94:06:BA:3D:3C:F0:B2:CD:1D:67:65:E3:7F:85
            X509v3 Authority Key Identifier: 
                keyid:58:30:B5:9B:2C:05:94:06:BA:3D:3C:F0:B2:CD:1D:67:65:E3:7F:85
                DirName:/C=SE/ST=Uppsala/O=MySQL AB/emailAddress=abstract.mysql.developer@mysql.com
                serial:CB:73:4B:30:A0:CB:F7:D9

            X509v3 Basic Constraints: 
                CA:TRUE
    Signature Algorithm: sha1WithRSAEncryption
        59:07:27:11:c3:39:b1:9c:6c:9b:12:9f:c9:e1:69:31:a7:10:
        b1:fb:5f:e2:8d:83:9d:c8:f0:8b:ff:10:ee:ba:37:45:75:f7:
        dd:e6:d4:bb:f5:13:27:ec:82:2e:0d:83:f4:ce:d0:04:db:88:
        20:80:dd:6e:7b:4e:88:f5:15:d5
-----BEGIN CERTIFICATE-----
MIICjjCCAjigAwIBAgIJAMtzSzCgy/fZMA0GCSqGSIb3DQEBBQUAMGUxCzAJBgNV
BAYTAlNFMRAwDgYDVQQIEwdVcHBzYWxhMREwDwYDVQQKEwhNeVNRTCBBQjExMC8G
CSqGSIb3DQEJARYiYWJzdHJhY3QubXlzcWwuZGV2ZWxvcGVyQG15c3FsLmNvbTAe
Fw0xMDAxMjYyMjMyMzhaFw0xMTAxMjYyMjMyMzhaMGUxCzAJBgNVBAYTAlNFMRAw
DgYDVQQIEwdVcHBzYWxhMREwDwYDVQQKEwhNeVNRTCBBQjExMC8GCSqGSIb3DQEJ
ARYiYWJzdHJhY3QubXlzcWwuZGV2ZWxvcGVyQG15c3FsLmNvbTBcMA0GCSqGSIb3
DQEBAQUAA0sAMEgCQQDhUjAs2b5kKJFdev3Z6RQ1etKUTpFG4Nufa3n0TKxuB2E0
hnRip6hEr/qHh6h9QmH/q1DUe791+tXVs3T7Vh43AgMBAAGjgcowgccwHQYDVR0O
BBYEFFgwtZssBZQGuj088LLNHWdl43+FMIGXBgNVHSMEgY8wgYyAFFgwtZssBZQG
uj088LLNHWdl43+FoWmkZzBlMQswCQYDVQQGEwJTRTEQMA4GA1UECBMHVXBwc2Fs
YTERMA8GA1UEChMITXlTUUwgQUIxMTAvBgkqhkiG9w0BCQEWImFic3RyYWN0Lm15
c3FsLmRldmVsb3BlckBteXNxbC5jb22CCQDLc0swoMv32TAMBgNVHRMEBTADAQH/
MA0GCSqGSIb3DQEBBQUAA0EAWQcnEcM5sZxsmxKfyeFpMacQsftf4o2Dncjwi/8Q
7ro3RXX33ebUu/UTJ+yCLg2D9M7QBNuIIIDdbntOiPUV1Q==
-----END CERTIFICATE-----
