Certificate:
    Data:
        Version: 3 (0x2)
        Serial Number: 2 (0x2)
        Signature Algorithm: sha1WithRSAEncryption
        Issuer: C=FI, ST=Tuusula, O=Monty Program Ab/emailAddress=abstract.developer@askmonty.org
        Validity
            Not Before: Jan 28 22:01:38 2010 GMT
            Not After : Dec  7 22:01:38 2019 GMT
        Subject: C=FI, ST=Tuusula, O=Monty Program Ab/emailAddress=abstract.developer@askmonty.org
        Subject Public Key Info:
            Public Key Algorithm: rsaEncryption
            RSA Public Key: (1024 bit)
                Modulus (1024 bit):
                    00:bd:dc:3d:f8:3c:0b:d4:d2:c0:a3:9c:34:2d:e7:
                    11:ff:4d:43:35:17:f6:0d:91:01:92:9e:4f:4d:c0:
                    38:d5:62:03:55:33:db:66:a2:91:d3:f2:b6:23:34:
                    95:53:50:3d:4f:e3:0c:d7:76:fd:f6:54:64:e6:f6:
                    dc:70:74:7c:6b:74:41:59:b0:19:5d:62:90:3c:a7:
                    c8:5e:21:8f:2b:22:6b:c7:43:9b:be:79:84:60:da:
                    16:c9:ce:ee:fd:66:cb:54:81:e2:b5:1c:cf:f9:74:
                    de:38:2b:28:d4:31:33:55:d2:30:1c:a3:e4:c2:c7:
                    31:46:43:d5:33:3d:8a:0b:47
                Exponent: 65537 (0x10001)
        X509v3 extensions:
            X509v3 Basic Constraints: 
                CA:FALSE
            Netscape Comment: 
                OpenSSL Generated Certificate
            X509v3 Subject Key Identifier: 
                BE:E6:DB:19:8D:DB:72:9A:85:EE:B2:B8:5D:E7:FF:61:DF:09:08:AF
            X509v3 Authority Key Identifier: 
                keyid:E0:8A:68:D1:C5:14:FA:E3:BB:C0:30:CD:6C:52:7F:DE:88:29:F4:70

    Signature Algorithm: sha1WithRSAEncryption
        41:95:6d:0a:a4:ee:af:68:cd:94:26:59:9a:18:b7:75:3c:c5:
        0f:22:d3:5c:31:9b:85:a0:93:b3:f0:50:29:ba:1e:d3:5a:43:
        0b:77:2d:98:87:a7:a7:39:0f:40:8d:03:d3:b3:67:43:77:bc:
        3c:51:c2:f9:9e:7a:2d:39:c4:5c:16:d7:70:d6:74:d1:6c:e1:
        6a:4d:fd:1f:10:af:64:3b:f4:64:e9:b2:b3:fb:c8:cd:c5:41:
        cd:99:e0:ac:83:1d:81:2c:6b:99:ba:80:02:12:72:f7:3b:bb:
        93:72:00:da:ff:d3:87:75:d2:3a:a4:ca:4d:c1:8b:c1:21:50:
        cb:57
-----BEGIN CERTIFICATE-----
MIICxTCCAi6gAwIBAgIBAjANBgkqhkiG9w0BAQUFADBqMQswCQYDVQQGEwJGSTEQ
MA4GA1UECBMHVHV1c3VsYTEZMBcGA1UEChMQTW9udHkgUHJvZ3JhbSBBYjEuMCwG
CSqGSIb3DQEJARYfYWJzdHJhY3QuZGV2ZWxvcGVyQGFza21vbnR5Lm9yZzAeFw0x
MDAxMjgyMjAxMzhaFw0xOTEyMDcyMjAxMzhaMGoxCzAJBgNVBAYTAkZJMRAwDgYD
VQQIEwdUdXVzdWxhMRkwFwYDVQQKExBNb250eSBQcm9ncmFtIEFiMS4wLAYJKoZI
hvcNAQkBFh9hYnN0cmFjdC5kZXZlbG9wZXJAYXNrbW9udHkub3JnMIGfMA0GCSqG
SIb3DQEBAQUAA4GNADCBiQKBgQC93D34PAvU0sCjnDQt5xH/TUM1F/YNkQGSnk9N
wDjVYgNVM9tmopHT8rYjNJVTUD1P4wzXdv32VGTm9txwdHxrdEFZsBldYpA8p8he
IY8rImvHQ5u+eYRg2hbJzu79ZstUgeK1HM/5dN44KyjUMTNV0jAco+TCxzFGQ9Uz
PYoLRwIDAQABo3sweTAJBgNVHRMEAjAAMCwGCWCGSAGG+EIBDQQfFh1PcGVuU1NM
IEdlbmVyYXRlZCBDZXJ0aWZpY2F0ZTAdBgNVHQ4EFgQUvubbGY3bcpqF7rK4Xef/
Yd8JCK8wHwYDVR0jBBgwFoAU4Ipo0cUU+uO7wDDNbFJ/3ogp9HAwDQYJKoZIhvcN
AQEFBQADgYEAQZVtCqTur2jNlCZZmhi3dTzFDyLTXDGbhaCTs/BQKboe01pDC3ct
mIenpzkPQI0D07NnQ3e8PFHC+Z56LTnEXBbXcNZ00Wzhak39HxCvZDv0ZOmys/vI
zcVBzZngrIMdgSxrmbqAAhJy9zu7k3IA2v/Th3XSOqTKTcGLwSFQy1c=
-----END CERTIFICATE-----
