Certificate:
    Data:
        Version: 3 (0x2)
        Serial Number: 6 (0x6)
        Signature Algorithm: sha1WithRSAEncryption
        Issuer: C=SE, ST=Uppsala, L=Uppsala, O=MySQL AB
        Validity
            Not Before: Feb 20 03:03:26 2010 GMT
            Not After : Sep  3 03:03:26 2030 GMT
        Subject: C=SE, ST=Uppsala, O=MySQL AB
        Subject Public Key Info:
            Public Key Algorithm: rsaEncryption
            RSA Public Key: (1024 bit)
                Modulus (1024 bit):
                    00:c2:e7:20:cf:89:59:2f:67:cb:4c:9f:e8:11:f2:
                    23:e5:f1:b1:ee:3f:66:5f:c3:f5:fd:1e:31:ee:8f:
                    4c:2a:bd:c0:4a:a5:9f:c8:44:d5:77:8f:15:1b:4d:
                    78:6e:b2:a2:48:a5:24:33:05:40:02:b3:c1:87:8d:
                    59:3c:1a:07:aa:86:f0:04:e1:9c:20:4b:22:32:c4:
                    51:9e:40:e4:31:c3:57:f5:98:bf:2e:b1:fd:2c:56:
                    bf:49:d9:9b:e7:17:cc:95:5f:b5:08:19:5e:9d:df:
                    65:22:39:2c:48:fb:69:96:31:7a:35:4d:de:60:b4:
                    c1:60:19:5f:96:56:7e:55:19
                Exponent: 65537 (0x10001)
        X509v3 extensions:
            X509v3 Basic Constraints: 
                CA:FALSE
            X509v3 Subject Key Identifier: 
                8D:10:67:91:33:76:9C:02:E5:78:5D:D8:C5:EF:25:96:B2:D7:FA:1F
            X509v3 Authority Key Identifier: 
                keyid:B1:FB:7E:77:B5:40:8D:68:11:7E:D9:11:E5:C3:C6:DA:4D:AC:51:B0
                DirName:/C=SE/ST=Uppsala/L=Uppsala/O=MySQL AB
                serial:BE:58:AD:4C:1F:3D:25:95

    Signature Algorithm: sha1WithRSAEncryption
        a9:88:10:3e:5d:2a:47:29:c8:03:27:7a:31:5a:8e:10:03:bc:
        b5:4e:37:1d:12:7b:eb:5f:50:71:70:b1:a3:8e:93:0e:77:17:
        6c:47:b6:c9:a4:4d:2a:c4:38:f0:61:55:b2:7f:28:ba:06:79:
        ee:67:11:7d:d4:c9:7f:0a:18:c8:c1:cb:d0:2c:f9:63:0f:bb:
        45:ca:de:ea:bb:ac:00:01:52:48:36:2b:07:2b:c8:46:c7:b1:
        21:81:bd:77:39:e7:4c:39:aa:bd:ac:60:d8:a7:bf:cf:14:98:
        4a:0b:a1:40:55:06:8d:6f:35:a9:39:a0:71:a9:97:ba:7c:73:
        3c:41:ba:c5:1c:11:4b:2b:43:1d:2d:ba:7b:5f:14:b5:3d:64:
        62:15:36:b4:16:bd:78:c8:43:8d:f9:1c:a5:d2:ac:a1:58:74:
        e1:99:de:ad:04:19:43:a8:bd:0a:fd:19:9b:50:44:46:6d:18:
        55:4d:bf:b4:5b:a4:93:62:c7:64:91:6c:54:34:d1:f8:f3:ff:
        12:6d:5f:85:e7:35:9e:5c:42:81:5e:fb:c8:bb:44:51:98:b2:
        ef:1b:9f:5a:22:77:28:7d:da:fb:08:c2:94:9a:0f:42:08:93:
        54:10:1e:ad:f2:4f:fc:62:98:51:e9:9b:b9:3a:93:d9:e4:1f:
        1d:c4:76:d0
-----BEGIN CERTIFICATE-----
MIIDETCCAfmgAwIBAgIBBjANBgkqhkiG9w0BAQUFADBEMQswCQYDVQQGEwJTRTEQ
MA4GA1UECBMHVXBwc2FsYTEQMA4GA1UEBxMHVXBwc2FsYTERMA8GA1UEChMITXlT
UUwgQUIwHhcNMTAwMjIwMDMwMzI2WhcNMzAwOTAzMDMwMzI2WjAyMQswCQYDVQQG
EwJTRTEQMA4GA1UECBMHVXBwc2FsYTERMA8GA1UEChMITXlTUUwgQUIwgZ8wDQYJ
KoZIhvcNAQEBBQADgY0AMIGJAoGBAMLnIM+JWS9ny0yf6BHyI+Xxse4/Zl/D9f0e
Me6PTCq9wEqln8hE1XePFRtNeG6yokilJDMFQAKzwYeNWTwaB6qG8AThnCBLIjLE
UZ5A5DHDV/WYvy6x/SxWv0nZm+cXzJVftQgZXp3fZSI5LEj7aZYxejVN3mC0wWAZ
X5ZWflUZAgMBAAGjgaMwgaAwCQYDVR0TBAIwADAdBgNVHQ4EFgQUjRBnkTN2nALl
eF3Yxe8llrLX+h8wdAYDVR0jBG0wa4AUsft+d7VAjWgRftkR5cPG2k2sUbChSKRG
MEQxCzAJBgNVBAYTAlNFMRAwDgYDVQQIEwdVcHBzYWxhMRAwDgYDVQQHEwdVcHBz
YWxhMREwDwYDVQQKEwhNeVNRTCBBQoIJAL5YrUwfPSWVMA0GCSqGSIb3DQEBBQUA
A4IBAQCpiBA+XSpHKcgDJ3oxWo4QA7y1TjcdEnvrX1BxcLGjjpMOdxdsR7bJpE0q
xDjwYVWyfyi6BnnuZxF91Ml/ChjIwcvQLPljD7tFyt7qu6wAAVJINisHK8hGx7Eh
gb13OedMOaq9rGDYp7/PFJhKC6FAVQaNbzWpOaBxqZe6fHM8QbrFHBFLK0MdLbp7
XxS1PWRiFTa0Fr14yEON+Ryl0qyhWHThmd6tBBlDqL0K/RmbUERGbRhVTb+0W6ST
YsdkkWxUNNH48/8SbV+F5zWeXEKBXvvIu0RRmLLvG59aIncofdr7CMKUmg9CCJNU
EB6t8k/8YphR6Zu5OpPZ5B8dxHbQ
-----END CERTIFICATE-----
