Certificate:
    Data:
        Version: 3 (0x2)
        Serial Number: 3 (0x3)
    Signature Algorithm: sha1WithRSAEncryption
        Issuer: C=SE, ST=Uppsala, L=Uppsala, O=MySQL AB
        Validity
            Not Before: Jan 29 13:33:49 2015 GMT
            Not After : Jan 24 13:33:49 2035 GMT
        Subject: C=SE, ST=Uppsala, O=MySQL AB
        Subject Public Key Info:
            Public Key Algorithm: rsaEncryption
                Public-Key: (1024 bit)
                Modulus:
                    00:c1:f6:6e:41:de:b5:80:fe:10:6d:c5:15:98:53:
                    85:4a:88:51:06:85:30:7f:c9:92:87:51:3a:d6:8d:
                    d3:9c:0e:91:c2:39:30:e9:b2:6e:53:4a:3a:aa:a3:
                    8b:ce:c0:93:94:c9:65:db:89:8e:21:2b:af:2a:ff:
                    7b:5a:0f:b9:03:99:f0:eb:20:d4:2c:39:00:0e:5a:
                    b7:2b:17:e6:78:54:4f:54:23:36:81:b2:db:3e:48:
                    cd:8e:14:36:b4:4f:6e:4d:a1:84:64:29:b7:68:3c:
                    45:3e:eb:9a:9b:8f:e2:d0:35:a8:0c:e6:70:4e:ac:
                    78:74:d5:45:aa:67:33:81:0d
                Exponent: 65537 (0x10001)
        X509v3 extensions:
            X509v3 Basic Constraints: 
                CA:FALSE
            Netscape Comment: 
                OpenSSL Generated Certificate
            X509v3 Subject Key Identifier: 
                17:61:EA:3F:25:92:55:2B:04:1C:D8:C7:A9:F6:61:C9:D9:99:A4:C9
            X509v3 Authority Key Identifier: 
                keyid:D0:25:36:E4:E6:DB:8B:6E:4F:8A:4D:20:48:A4:21:3A:58:7E:EF:C4

    Signature Algorithm: sha1WithRSAEncryption
         78:ea:34:4f:ac:c5:0b:17:bd:c9:f4:28:bd:b2:b1:cd:a7:58:
         74:4f:00:82:82:c8:a5:71:fe:f4:2f:54:d0:e0:ae:b0:57:87:
         7d:e6:2e:14:4a:49:21:43:c3:b5:39:e4:7c:0f:fe:8b:c5:5d:
         5e:84:bc:42:2a:2a:a1:69:10:30:dc:e8:a6:ba:79:8b:a0:56:
         09:ab:a3:ce:db:32:b2:10:7a:9f:b7:7a:46:80:4a:90:59:af:
         81:5c:c7:92:20:46:9d:0e:27:20:e5:9a:da:b3:26:96:37:3b:
         87:e7:13:93:ba:8d:be:d3:9d:7a:cb:6d:96:75:36:54:e1:cd:
         7e:ff:0d:2d:3c:6a:cd:50:b3:a5:73:a8:83:a0:a7:a2:aa:fa:
         6e:49:b9:77:fc:03:16:21:bb:c7:8a:4a:79:5f:a9:7e:b9:21:
         6d:84:a7:5f:96:60:38:42:f7:d0:82:de:87:74:d4:05:93:b8:
         94:ae:d1:eb:0c:26:96:60:d5:d8:6c:cc:17:40:85:2f:ac:f8:
         31:f5:f5:76:d0:f1:3f:aa:87:81:b9:a0:93:71:28:6a:b2:f6:
         74:36:a1:fa:f8:dc:39:a8:cd:b7:75:79:d0:40:73:6c:d6:b2:
         dc:9e:58:a5:51:e5:09:f0:3d:c2:2f:3d:16:ab:41:26:ec:3b:
         71:04:2d:eb
-----BEGIN CERTIFICATE-----
MIIC6DCCAdCgAwIBAgIBAzANBgkqhkiG9w0BAQUFADBEMQswCQYDVQQGEwJTRTEQ
MA4GA1UECAwHVXBwc2FsYTEQMA4GA1UEBwwHVXBwc2FsYTERMA8GA1UECgwITXlT
UUwgQUIwHhcNMTUwMTI5MTMzMzQ5WhcNMzUwMTI0MTMzMzQ5WjAyMQswCQYDVQQG
EwJTRTEQMA4GA1UECAwHVXBwc2FsYTERMA8GA1UECgwITXlTUUwgQUIwgZ8wDQYJ
KoZIhvcNAQEBBQADgY0AMIGJAoGBAMH2bkHetYD+EG3FFZhThUqIUQaFMH/JkodR
OtaN05wOkcI5MOmyblNKOqqji87Ak5TJZduJjiErryr/e1oPuQOZ8Osg1Cw5AA5a
tysX5nhUT1QjNoGy2z5IzY4UNrRPbk2hhGQpt2g8RT7rmpuP4tA1qAzmcE6seHTV
RapnM4ENAgMBAAGjezB5MAkGA1UdEwQCMAAwLAYJYIZIAYb4QgENBB8WHU9wZW5T
U0wgR2VuZXJhdGVkIENlcnRpZmljYXRlMB0GA1UdDgQWBBQXYeo/JZJVKwQc2Mep
9mHJ2ZmkyTAfBgNVHSMEGDAWgBTQJTbk5tuLbk+KTSBIpCE6WH7vxDANBgkqhkiG
9w0BAQUFAAOCAQEAeOo0T6zFCxe9yfQovbKxzadYdE8AgoLIpXH+9C9U0OCusFeH
feYuFEpJIUPDtTnkfA/+i8VdXoS8QioqoWkQMNzoprp5i6BWCaujztsyshB6n7d6
RoBKkFmvgVzHkiBGnQ4nIOWa2rMmljc7h+cTk7qNvtOdesttlnU2VOHNfv8NLTxq
zVCzpXOog6Cnoqr6bkm5d/wDFiG7x4pKeV+pfrkhbYSnX5ZgOEL30ILeh3TUBZO4
lK7R6wwmlmDV2GzMF0CFL6z4MfX1dtDxP6qHgbmgk3EoarL2dDah+vjcOajNt3V5
0EBzbNay3J5YpVHlCfA9wi89FqtBJuw7cQQt6w==
-----END CERTIFICATE-----
