Certificate:
    Data:
        Version: 3 (0x2)
        Serial Number: 3 (0x3)
        Signature Algorithm: sha1WithRSAEncryption
        Issuer: C=SE, ST=Uppsala, L=Uppsala, O=MySQL AB
        Validity
            Not Before: Jan 28 11:04:39 2009 GMT
            Not After : Jan 28 11:04:39 2010 GMT
        Subject: C=SE, ST=Uppsala, O=MySQL AB/emailAddress=abstract.mysql.developer@mysql.com
        Subject Public Key Info:
            Public Key Algorithm: rsaEncryption
            RSA Public Key: (512 bit)
                Modulus (512 bit):
                    00:e1:52:30:2c:d9:be:64:28:91:5d:7a:fd:d9:e9:
                    14:35:7a:d2:94:4e:91:46:e0:db:9f:6b:79:f4:4c:
                    ac:6e:07:61:34:86:74:62:a7:a8:44:af:fa:87:87:
                    a8:7d:42:61:ff:ab:50:d4:7b:bf:75:fa:d5:d5:b3:
                    74:fb:56:1e:37
                Exponent: 65537 (0x10001)
        X509v3 extensions:
            X509v3 Basic Constraints: 
                CA:FALSE
            X509v3 Subject Key Identifier: 
                58:30:B5:9B:2C:05:94:06:BA:3D:3C:F0:B2:CD:1D:67:65:E3:7F:85
            X509v3 Authority Key Identifier: 
                keyid:F2:E2:EA:55:65:A4:9A:E2:AC:9D:97:F5:45:6C:F6:F7:8C:11:AD:DF
                DirName:/C=SE/ST=Uppsala/L=Uppsala/O=MySQL AB
                serial:95:E9:78:F5:34:50:E4:D5

    Signature Algorithm: sha1WithRSAEncryption
        05:19:e3:13:14:fc:c5:28:bf:69:f8:00:b3:25:cb:bd:ca:9f:
        2f:4c:b3:a8:04:11:f0:74:27:bd:82:2c:b4:49:9b:a7:59:f0:
        f7:87:d1:e0:ba:99:a2:fe:4b:1d:10:6f:e4:a2:b3:cd:7f:8b:
        68:31:46:ee:cd:9e:e2:47:e1:4c:fa:74:d1:e2:8b:cc:a0:4b:
        a8:24:d1:a4:c3:6b:2a:c6:28:cd:41:e0:06:48:e6:cf:f2:3c:
        ca:37:95:d7:29:64:6b:91:91:83:e7:ac:c8:0b:87:bc:da:a6:
        aa:f1:44:43:c8:74:7b:15:26:91:2e:03:c4:71:50:6c:f8:68:
        dc:8c
-----BEGIN CERTIFICATE-----
MIICfzCCAeigAwIBAgIBAzANBgkqhkiG9w0BAQUFADBEMQswCQYDVQQGEwJTRTEQ
MA4GA1UECBMHVXBwc2FsYTEQMA4GA1UEBxMHVXBwc2FsYTERMA8GA1UEChMITXlT
UUwgQUIwHhcNMDkwMTI4MTEwNDM5WhcNMTAwMTI4MTEwNDM5WjBlMQswCQYDVQQG
EwJTRTEQMA4GA1UECBMHVXBwc2FsYTERMA8GA1UEChMITXlTUUwgQUIxMTAvBgkq
hkiG9w0BCQEWImFic3RyYWN0Lm15c3FsLmRldmVsb3BlckBteXNxbC5jb20wXDAN
BgkqhkiG9w0BAQEFAANLADBIAkEA4VIwLNm+ZCiRXXr92ekUNXrSlE6RRuDbn2t5
9EysbgdhNIZ0YqeoRK/6h4eofUJh/6tQ1Hu/dfrV1bN0+1YeNwIDAQABo4GjMIGg
MAkGA1UdEwQCMAAwHQYDVR0OBBYEFFgwtZssBZQGuj088LLNHWdl43+FMHQGA1Ud
IwRtMGuAFPLi6lVlpJrirJ2X9UVs9veMEa3foUikRjBEMQswCQYDVQQGEwJTRTEQ
MA4GA1UECBMHVXBwc2FsYTEQMA4GA1UEBxMHVXBwc2FsYTERMA8GA1UEChMITXlT
UUwgQUKCCQCV6Xj1NFDk1TANBgkqhkiG9w0BAQUFAAOBgQAFGeMTFPzFKL9p+ACz
Jcu9yp8vTLOoBBHwdCe9giy0SZunWfD3h9Hgupmi/ksdEG/korPNf4toMUbuzZ7i
R+FM+nTR4ovMoEuoJNGkw2sqxijNQeAGSObP8jzKN5XXKWRrkZGD56zIC4e82qaq
8URDyHR7FSaRLgPEcVBs+GjcjA==
-----END CERTIFICATE-----
