Certificate:
    Data:
        Version: 3 (0x2)
        Serial Number: 3 (0x3)
    Signature Algorithm: sha1WithRSAEncryption
        Issuer: CN=cacert, C=FI, ST=Helsinki, L=Helsinki, O=MariaDB
        Validity
            Not Before: Apr 25 14:55:16 2015 GMT
            Not After : Apr 20 14:55:16 2035 GMT
        Subject: C=FI, ST=Helsinki, L=Helsinki, O=MariaDB, CN=client
        Subject Public Key Info:
            Public Key Algorithm: rsaEncryption
                Public-Key: (1024 bit)
                Modulus:
                    00:ce:a0:3d:3c:a4:bb:4f:a1:4f:91:0d:05:ac:5b:
                    8a:15:7f:d7:aa:0c:a3:a7:9f:b2:c7:26:9d:65:28:
                    b1:84:d3:a0:ef:9e:b1:45:0f:33:df:98:6e:71:ff:
                    2b:66:9c:9c:c1:25:13:27:42:b6:20:46:e7:e7:47:
                    a1:88:47:c2:9e:e2:45:25:99:9f:f9:28:1a:9a:13:
                    67:5d:3e:b3:b8:fe:40:25:ac:26:49:46:2c:03:43:
                    83:67:d8:0f:41:ae:2e:f4:d8:71:60:3c:8e:e7:91:
                    d0:bb:2c:ca:12:da:71:1a:7b:e3:fa:8c:8f:c3:bb:
                    62:55:89:b3:bf:85:45:01:61
                Exponent: 65537 (0x10001)
        X509v3 extensions:
            X509v3 Basic Constraints: 
                CA:FALSE
            Netscape Comment: 
                OpenSSL Generated Certificate
            X509v3 Subject Key Identifier: 
                5A:73:74:8E:14:29:C3:FB:B4:19:0F:97:8F:AA:6F:E1:E1:A8:F7:5B
            X509v3 Authority Key Identifier: 
                keyid:C7:2C:01:95:1A:F5:3E:CD:04:A6:24:35:35:04:D9:A7:16:01:2A:79

    Signature Algorithm: sha1WithRSAEncryption
         32:42:4b:36:44:a5:6c:fb:70:d8:08:2b:cb:16:34:15:db:39:
         60:7b:7e:b4:4a:bc:fb:e5:16:04:97:0d:eb:f5:68:95:da:2f:
         23:57:4c:c9:29:2b:d1:1b:1b:9f:bd:f4:79:75:df:62:7f:63:
         b4:84:7a:95:5c:c4:ee:f3:77:16:e4:0b:8a:5e:c9:64:bd:7c:
         04:50:ac:ff:9a:41:6b:b1:6a:9f:cd:45:10:72:83:10:8a:26:
         1d:7f:6c:84:34:5a:41:79:72:91:ee:87:5d:1d:3a:55:ff:91:
         7e:52:85:ff:42:41:eb:76:56:23:e5:bc:bc:79:b1:aa:4e:4c:
         bf:7b:df:63:8b:1a:3c:4b:01:72:89:35:bb:0d:92:97:16:6e:
         ae:50:cb:89:ee:c6:7a:d0:d3:32:22:0f:19:33:1e:ee:ff:41:
         a5:a1:25:c5:4c:ce:8f:98:4c:b5:2c:1f:ec:cc:f1:21:e2:3a:
         ff:7d:6a:87:fe:89:fd:2c:20:3e:fb:9b:b8:c0:f9:09:99:ce:
         45:63:82:09:1c:bb:79:d8:a8:40:21:46:c7:ae:3e:dd:89:9d:
         56:46:4a:f4:ed:7d:5b:a6:1e:a6:1b:26:f9:ec:26:b4:51:3a:
         87:b6:50:13:84:33:22:1a:8a:20:c5:44:64:b8:bb:de:32:ec:
         6b:58:db:17
-----BEGIN CERTIFICATE-----
MIIDHjCCAgagAwIBAgIBAzANBgkqhkiG9w0BAQUFADBWMQ8wDQYDVQQDDAZjYWNl
cnQxCzAJBgNVBAYTAkZJMREwDwYDVQQIDAhIZWxzaW5raTERMA8GA1UEBwwISGVs
c2lua2kxEDAOBgNVBAoMB01hcmlhREIwHhcNMTUwNDI1MTQ1NTE2WhcNMzUwNDIw
MTQ1NTE2WjBWMQswCQYDVQQGEwJGSTERMA8GA1UECAwISGVsc2lua2kxETAPBgNV
BAcMCEhlbHNpbmtpMRAwDgYDVQQKDAdNYXJpYURCMQ8wDQYDVQQDDAZjbGllbnQw
gZ8wDQYJKoZIhvcNAQEBBQADgY0AMIGJAoGBAM6gPTyku0+hT5ENBaxbihV/16oM
o6efsscmnWUosYTToO+esUUPM9+YbnH/K2acnMElEydCtiBG5+dHoYhHwp7iRSWZ
n/koGpoTZ10+s7j+QCWsJklGLANDg2fYD0GuLvTYcWA8jueR0LssyhLacRp74/qM
j8O7YlWJs7+FRQFhAgMBAAGjezB5MAkGA1UdEwQCMAAwLAYJYIZIAYb4QgENBB8W
HU9wZW5TU0wgR2VuZXJhdGVkIENlcnRpZmljYXRlMB0GA1UdDgQWBBRac3SOFCnD
+7QZD5ePqm/h4aj3WzAfBgNVHSMEGDAWgBTHLAGVGvU+zQSmJDU1BNmnFgEqeTAN
BgkqhkiG9w0BAQUFAAOCAQEAMkJLNkSlbPtw2AgryxY0Fds5YHt+tEq8++UWBJcN
6/VoldovI1dMySkr0Rsbn730eXXfYn9jtIR6lVzE7vN3FuQLil7JZL18BFCs/5pB
a7Fqn81FEHKDEIomHX9shDRaQXlyke6HXR06Vf+RflKF/0JB63ZWI+W8vHmxqk5M
v3vfY4saPEsBcok1uw2SlxZurlDLie7GetDTMiIPGTMe7v9BpaElxUzOj5hMtSwf
7MzxIeI6/31qh/6J/SwgPvubuMD5CZnORWOCCRy7edioQCFGx64+3YmdVkZK9O19
W6Yephsm+ewmtFE6h7ZQE4QzIhqKIMVEZLi73jLsa1jbFw==
-----END CERTIFICATE-----
