Certificate:
    Data:
        Version: 1 (0x0)
        Serial Number: 1 (0x1)
    Signature Algorithm: sha1WithRSAEncryption
        Issuer: C=SE, ST=Stockholm, L=Stockholm, O=Oracle, OU=MySQL, CN=CA
        Validity
            Not Before: Mar 27 13:59:18 2015 GMT
            Not After : Feb  2 13:59:18 2025 GMT
        Subject: C=SE, ST=Stockholm, L=Stockholm, O=Oracle, OU=MySQL, CN=Client
        Subject Public Key Info:
            Public Key Algorithm: rsaEncryption
                Public-Key: (2048 bit)
                Modulus:
                    00:9d:39:e4:6d:ce:1c:e0:7c:77:aa:9a:2b:94:db:
                    53:48:2d:b5:77:6c:d3:63:73:b6:ff:b0:31:89:56:
                    56:dd:fb:ce:ed:d8:94:f5:72:3d:4d:bf:a6:8b:43:
                    64:f6:2d:66:5d:5a:77:3f:ae:cd:55:f0:02:03:0d:
                    ac:72:bf:7c:b6:a9:12:d7:fe:66:d6:ca:53:4e:95:
                    0c:f2:a2:c1:2d:b2:d5:b0:d8:01:4e:07:89:ee:c8:
                    9a:16:f5:1f:0b:4f:04:e3:dc:00:3a:2f:c4:20:ab:
                    0f:f4:81:f1:e3:2e:ba:8f:4b:3d:cc:b2:7f:62:3a:
                    3e:e9:ef:dd:2b:40:99:b5:98:2d:8f:2a:00:20:34:
                    de:6a:7a:66:fa:c8:8c:b2:c3:ad:7d:4d:31:d0:ba:
                    35:ee:9d:c7:e3:25:48:02:6d:72:07:d0:ce:db:3b:
                    7d:83:60:07:39:1a:76:4f:69:23:f3:45:30:07:bd:
                    eb:c9:b9:ca:91:dd:21:65:ac:e4:53:ad:10:08:71:
                    bd:74:15:56:a7:d6:d7:d8:fc:91:ac:53:c3:50:86:
                    9f:53:1e:a7:f3:c5:bd:17:bd:fd:0f:6c:b4:c0:c8:
                    7b:e6:dd:69:c2:f6:07:09:e4:a1:6f:a7:c7:03:b9:
                    b8:d9:aa:eb:95:b5:37:2f:cb:8e:fc:55:f0:ad:c7:
                    33:f3
                Exponent: 65537 (0x10001)
    Signature Algorithm: sha1WithRSAEncryption
         2b:f5:95:a5:83:87:9b:c3:77:57:10:e0:64:0f:3a:6a:a6:5f:
         9a:dd:16:b3:71:b1:0c:d7:59:93:ff:89:9f:d0:50:de:cd:c8:
         d5:a3:2a:1c:6e:e1:0b:82:e4:ae:57:1b:13:c9:c6:ea:09:21:
         7f:5b:ff:3d:8d:77:25:a8:ed:a8:7c:9d:95:b0:55:60:fc:19:
         f3:4f:3f:73:1f:72:d8:2e:c7:c6:bb:16:1d:33:07:bf:ea:6b:
         dc:5f:5d:d0:53:2e:b2:96:ad:ea:64:5f:cb:f4:8c:7a:16:bb:
         cf:42:b8:f0:9e:33:cb:29:f5:a7:4e:af:b2:a2:a6:4f:8e:6d:
         85:a1:63:43:aa:dd:11:1d:b2:80:ae:22:6a:b2:4b:0c:27:3c:
         b4:59:d1:b4:77:48:69:ff:3b:e0:48:e8:3c:3f:df:14:43:80:
         68:97:06:fa:56:d6:dd:a3:7c:d0:0d:06:3a:a3:13:6f:d0:09:
         d2:2e:89:5b:b8:22:3f:d5:da:e7:4c:69:ea:55:03:ef:5e:55:
         49:18:a5:1a:b4:be:1b:68:b4:65:d0:64:ab:29:9d:81:5f:05:
         31:08:0f:12:b9:c9:6e:8e:2e:b5:8f:d4:e9:55:94:30:e5:13:
         d4:84:ad:4e:15:62:79:32:36:e8:67:b0:12:14:73:c0:bc:99:
         44:cf:b2:fb
-----BEGIN CERTIFICATE-----
MIIDPjCCAiYCAQEwDQYJKoZIhvcNAQEFBQAwYzELMAkGA1UEBhMCU0UxEjAQBgNV
BAgMCVN0b2NraG9sbTESMBAGA1UEBwwJU3RvY2tob2xtMQ8wDQYDVQQKDAZPcmFj
bGUxDjAMBgNVBAsMBU15U1FMMQswCQYDVQQDDAJDQTAeFw0xNTAzMjcxMzU5MTha
Fw0yNTAyMDIxMzU5MThaMGcxCzAJBgNVBAYTAlNFMRIwEAYDVQQIDAlTdG9ja2hv
bG0xEjAQBgNVBAcMCVN0b2NraG9sbTEPMA0GA1UECgwGT3JhY2xlMQ4wDAYDVQQL
DAVNeVNRTDEPMA0GA1UEAwwGQ2xpZW50MIIBIjANBgkqhkiG9w0BAQEFAAOCAQ8A
MIIBCgKCAQEAnTnkbc4c4Hx3qporlNtTSC21d2zTY3O2/7AxiVZW3fvO7diU9XI9
Tb+mi0Nk9i1mXVp3P67NVfACAw2scr98tqkS1/5m1spTTpUM8qLBLbLVsNgBTgeJ
7siaFvUfC08E49wAOi/EIKsP9IHx4y66j0s9zLJ/Yjo+6e/dK0CZtZgtjyoAIDTe
anpm+siMssOtfU0x0Lo17p3H4yVIAm1yB9DO2zt9g2AHORp2T2kj80UwB73rybnK
kd0hZazkU60QCHG9dBVWp9bX2PyRrFPDUIafUx6n88W9F739D2y0wMh75t1pwvYH
CeShb6fHA7m42arrlbU3L8uO/FXwrccz8wIDAQABMA0GCSqGSIb3DQEBBQUAA4IB
AQAr9ZWlg4ebw3dXEOBkDzpqpl+a3RazcbEM11mT/4mf0FDezcjVoyocbuELguSu
VxsTycbqCSF/W/89jXclqO2ofJ2VsFVg/BnzTz9zH3LYLsfGuxYdMwe/6mvcX13Q
Uy6ylq3qZF/L9Ix6FrvPQrjwnjPLKfWnTq+yoqZPjm2FoWNDqt0RHbKAriJqsksM
Jzy0WdG0d0hp/zvgSOg8P98UQ4Bolwb6Vtbdo3zQDQY6oxNv0AnSLolbuCI/1drn
TGnqVQPvXlVJGKUatL4baLRl0GSrKZ2BXwUxCA8Sucluji61j9TpVZQw5RPUhK1O
FWJ5MjboZ7ASFHPAvJlEz7L7
-----END CERTIFICATE-----
