Certificate:
    Data:
        Version: 3 (0x2)
        Serial Number:
            27:9a:6f:41:cc:a4:9a:73:13:55:a3:b6:f4:3f:71:d5:8a:a8:91:1f
        Signature Algorithm: sha256WithRSAEncryption
        Issuer: C=IN, ST=KA, O=Oracle, OU=MySQL, CN=MySQL CRL test ca certificate
        Validity
            Not Before: Jul  1 12:14:10 2019 GMT
            Not After : Jun 30 12:14:10 2020 GMT
        Subject: C=IN, ST=KA, L=Bangalore, O=Oracle, OU=MySQL, CN=MySQL CRL test client certificate
        Subject Public Key Info:
            Public Key Algorithm: rsaEncryption
                RSA Public-Key: (2048 bit)
                Modulus:
                    00:d6:97:3a:d7:2b:cc:68:4a:7f:72:18:ab:74:7d:
                    51:84:48:44:11:9f:d1:f2:ee:e0:40:6d:a0:23:fc:
                    36:a2:44:ca:2c:13:60:62:f9:ce:45:54:ef:3d:ec:
                    a8:6b:e0:02:66:10:89:1f:e7:bf:d2:2d:9c:79:e9:
                    3f:37:ae:fc:da:b3:0d:5f:6a:84:86:6a:04:13:26:
                    99:dd:c6:46:a3:e0:c1:1d:89:0b:4a:42:08:8e:d4:
                    56:3b:12:5e:de:04:e1:b7:da:b5:73:ee:9c:7f:a8:
                    04:f3:18:04:a7:5e:9d:a6:fd:b4:04:17:bb:3d:07:
                    8b:2b:cd:29:cb:ca:6a:d1:70:5d:4f:e5:10:09:44:
                    20:73:ef:65:87:0b:42:67:2c:1c:64:59:bd:56:ea:
                    88:d4:f1:b1:31:d8:ee:8a:bb:3d:22:09:6a:68:ec:
                    b4:c5:07:15:81:9e:ae:ee:72:d7:2d:67:df:bd:fd:
                    c5:10:5e:e6:88:18:ad:2a:2d:e4:33:be:ac:f7:fe:
                    f9:b9:40:54:69:f9:78:fe:57:81:93:89:49:a7:8b:
                    64:8b:72:ea:ab:53:55:43:1e:ea:3a:cd:b0:cb:97:
                    43:9b:70:cc:12:ef:22:08:55:d1:1c:ab:8b:1e:c1:
                    d5:4f:15:3f:2b:f7:01:39:a0:74:33:ae:ea:45:25:
                    af:2f
                Exponent: 65537 (0x10001)
        X509v3 extensions:
            X509v3 Subject Key Identifier: 
                BF:48:07:97:37:D7:64:E6:86:B7:3F:0A:1B:C7:08:9A:35:B0:5B:48
            X509v3 Authority Key Identifier: 
                keyid:A7:2E:CA:53:05:52:06:12:BD:ED:FF:CF:B8:BA:30:E7:7A:1F:96:46

            X509v3 Basic Constraints: critical
                CA:TRUE
    Signature Algorithm: sha256WithRSAEncryption
         30:e8:b1:28:8d:f3:09:c8:58:a5:2a:2b:6e:19:ec:f4:3f:fe:
         a0:b2:82:ee:08:5b:aa:94:2c:23:3a:b3:e5:14:43:21:f7:18:
         23:00:c4:88:b7:b3:b2:c8:b0:31:a2:b3:60:b5:9e:3f:95:b1:
         72:64:58:da:d7:8d:21:ef:85:93:6d:8d:46:a0:21:5b:c9:bd:
         c6:ea:c6:ff:36:c7:82:d6:4f:71:cf:81:f5:72:af:b1:b9:03:
         ea:a3:7c:2e:b8:67:ce:4b:32:d9:75:c9:5c:4e:2c:1c:c2:25:
         95:6b:6d:d4:49:5a:c1:01:54:98:78:73:40:3f:05:e5:91:73:
         fc:dd:88:4c:d3:c4:f9:9e:da:fe:cb:e0:a1:2f:6d:15:b5:d8:
         c5:92:07:4a:bf:1e:0b:ac:f4:6e:a3:86:85:31:df:be:a0:90:
         54:74:12:7c:d9:47:a9:f3:ed:c2:8e:69:0d:2e:51:eb:7b:9d:
         b8:7d:cb:32:ac:65:bd:8f:52:97:41:8f:7b:ca:38:3f:49:77:
         3c:4b:ac:b1:19:34:03:20:40:a3:9f:ad:79:c9:90:8f:08:8c:
         6f:9b:a9:de:d5:31:35:e2:27:bb:14:36:06:28:19:30:49:a7:
         ce:42:a7:19:61:2d:7a:94:1b:c6:15:86:4f:20:c1:49:a3:11:
         86:b6:61:87
-----BEGIN CERTIFICATE-----
MIIDvzCCAqegAwIBAgIUJ5pvQcykmnMTVaO29D9x1YqokR8wDQYJKoZIhvcNAQEL
BQAwYzELMAkGA1UEBhMCSU4xCzAJBgNVBAgMAktBMQ8wDQYDVQQKDAZPcmFjbGUx
DjAMBgNVBAsMBU15U1FMMSYwJAYDVQQDDB1NeVNRTCBDUkwgdGVzdCBjYSBjZXJ0
aWZpY2F0ZTAeFw0xOTA3MDExMjE0MTBaFw0yMDA2MzAxMjE0MTBaMHsxCzAJBgNV
BAYTAklOMQswCQYDVQQIDAJLQTESMBAGA1UEBwwJQmFuZ2Fsb3JlMQ8wDQYDVQQK
DAZPcmFjbGUxDjAMBgNVBAsMBU15U1FMMSowKAYDVQQDDCFNeVNRTCBDUkwgdGVz
dCBjbGllbnQgY2VydGlmaWNhdGUwggEiMA0GCSqGSIb3DQEBAQUAA4IBDwAwggEK
AoIBAQDWlzrXK8xoSn9yGKt0fVGESEQRn9Hy7uBAbaAj/DaiRMosE2Bi+c5FVO89
7Khr4AJmEIkf57/SLZx56T83rvzasw1faoSGagQTJpndxkaj4MEdiQtKQgiO1FY7
El7eBOG32rVz7px/qATzGASnXp2m/bQEF7s9B4srzSnLymrRcF1P5RAJRCBz72WH
C0JnLBxkWb1W6ojU8bEx2O6Kuz0iCWpo7LTFBxWBnq7uctctZ9+9/cUQXuaIGK0q
LeQzvqz3/vm5QFRp+Xj+V4GTiUmni2SLcuqrU1VDHuo6zbDLl0ObcMwS7yIIVdEc
q4sewdVPFT8r9wE5oHQzrupFJa8vAgMBAAGjUzBRMB0GA1UdDgQWBBS/SAeXN9dk
5oa3PwobxwiaNbBbSDAfBgNVHSMEGDAWgBSnLspTBVIGEr3t/8+4ujDneh+WRjAP
BgNVHRMBAf8EBTADAQH/MA0GCSqGSIb3DQEBCwUAA4IBAQAw6LEojfMJyFilKitu
Gez0P/6gsoLuCFuqlCwjOrPlFEMh9xgjAMSIt7OyyLAxorNgtZ4/lbFyZFja140h
74WTbY1GoCFbyb3G6sb/NseC1k9xz4H1cq+xuQPqo3wuuGfOSzLZdclcTiwcwiWV
a23USVrBAVSYeHNAPwXlkXP83YhM08T5ntr+y+ChL20VtdjFkgdKvx4LrPRuo4aF
Md++oJBUdBJ82Uep8+3CjmkNLlHre524fcsyrGW9j1KXQY97yjg/SXc8S6yxGTQD
IECjn615yZCPCIxvm6ne1TE14ie7FDYGKBkwSafOQqcZYS16lBvGFYZPIMFJoxGG
tmGH
-----END CERTIFICATE-----
