Certificate:
    Data:
        Version: 3 (0x2)
        Serial Number:
            27:9a:6f:41:cc:a4:9a:73:13:55:a3:b6:f4:3f:71:d5:8a:a8:91:1d
        Signature Algorithm: sha256WithRSAEncryption
        Issuer: C=IN, ST=KA, O=Oracle, OU=MySQL, CN=MySQL CRL test ca certificate
        Validity
            Not Before: Jul  1 11:58:53 2019 GMT
            Not After : Jun 30 11:58:53 2022 GMT
        Subject: C=IN, ST=KA, O=Oracle, OU=MySQL, CN=MySQL CRL test ca certificate
        Subject Public Key Info:
            Public Key Algorithm: rsaEncryption
                RSA Public-Key: (2048 bit)
                Modulus:
                    00:c9:09:95:54:a0:91:fd:f9:26:2f:ca:c4:ce:4a:
                    cc:25:72:44:34:f2:68:7a:4d:91:ab:1a:54:90:50:
                    fc:14:8a:f2:5b:83:f3:68:c9:0e:bc:0f:dd:11:2f:
                    25:43:9e:d4:5a:cf:e0:2a:4f:63:d8:1d:de:ef:7d:
                    6b:14:4f:8f:2e:9a:44:b8:4f:41:b3:88:95:71:e2:
                    cd:8b:22:96:7c:55:fb:39:1a:6b:18:05:18:2c:95:
                    15:9f:b0:e3:92:76:c5:c6:e3:3f:56:44:2d:fe:a5:
                    61:d7:47:db:84:be:08:19:d6:39:f3:4f:dd:6c:d9:
                    ff:e1:c2:ba:78:2b:87:a8:32:02:e2:a9:e7:8a:14:
                    bb:c5:7a:a8:33:ff:54:0b:5c:c6:20:cf:2e:e3:ee:
                    f5:fe:4c:98:26:a5:fc:1a:4a:3f:62:8f:df:a6:31:
                    d2:a0:f4:c8:04:dd:f5:b8:5e:6b:6c:c3:c4:c7:da:
                    80:19:2f:40:e1:df:7d:39:a0:9d:c7:fe:59:db:75:
                    f1:5e:2f:da:07:7f:5f:ac:0b:18:eb:0f:61:a5:17:
                    b1:9e:cb:d5:56:9a:b4:54:89:93:45:2b:90:7e:ef:
                    c3:a2:36:d5:7f:64:aa:a2:79:23:74:8c:02:93:5b:
                    da:dd:10:03:01:9e:84:49:4d:8f:32:75:f1:63:57:
                    88:19
                Exponent: 65537 (0x10001)
        X509v3 extensions:
            X509v3 Subject Key Identifier: 
                A7:2E:CA:53:05:52:06:12:BD:ED:FF:CF:B8:BA:30:E7:7A:1F:96:46
            X509v3 Authority Key Identifier: 
                keyid:A7:2E:CA:53:05:52:06:12:BD:ED:FF:CF:B8:BA:30:E7:7A:1F:96:46

            X509v3 Basic Constraints: critical
                CA:TRUE
    Signature Algorithm: sha256WithRSAEncryption
         53:ce:08:79:96:94:22:9b:1f:8e:2f:3c:ad:7b:1f:0e:45:7e:
         65:c1:c2:7f:46:f1:73:be:9c:e4:1b:2c:13:bd:bf:05:95:2b:
         3c:6e:70:62:b2:14:1e:a6:60:e3:a7:b7:40:22:97:db:74:d1:
         fc:47:27:ba:de:89:50:7e:e1:3b:f5:3e:95:aa:01:e8:8a:e6:
         f9:49:48:97:d2:91:a0:1f:9d:82:b5:35:16:58:01:d1:82:1d:
         b4:dc:68:b9:1b:84:fb:e3:ec:06:a6:55:69:e9:84:69:7d:34:
         ba:dd:dd:57:15:1a:9e:d8:f4:c7:44:98:07:35:66:ec:a6:1e:
         91:b8:a4:b2:9b:85:52:e8:98:e6:e8:28:8c:d4:1e:8e:45:50:
         58:c9:68:fd:b4:4b:4f:b7:58:9f:45:7b:b1:12:ae:7d:70:0d:
         4b:42:7e:46:d0:5a:d5:21:9f:f1:99:b6:21:75:34:7b:2a:d8:
         45:2e:f9:4d:fa:b4:72:a8:9e:22:e6:66:4b:81:1d:8e:b2:54:
         f3:0f:02:17:68:7f:79:ca:df:a7:5d:17:70:50:bf:47:df:5a:
         6a:e1:7f:af:ab:ca:54:86:ad:d8:35:c5:b8:f7:9d:72:0e:db:
         dc:0c:c3:08:2d:d1:9a:18:5c:c3:c1:64:7a:f3:9a:5a:6d:69:
         12:e1:fd:c2
-----BEGIN CERTIFICATE-----
MIIDpzCCAo+gAwIBAgIUJ5pvQcykmnMTVaO29D9x1YqokR0wDQYJKoZIhvcNAQEL
BQAwYzELMAkGA1UEBhMCSU4xCzAJBgNVBAgMAktBMQ8wDQYDVQQKDAZPcmFjbGUx
DjAMBgNVBAsMBU15U1FMMSYwJAYDVQQDDB1NeVNRTCBDUkwgdGVzdCBjYSBjZXJ0
aWZpY2F0ZTAeFw0xOTA3MDExMTU4NTNaFw0yMjA2MzAxMTU4NTNaMGMxCzAJBgNV
BAYTAklOMQswCQYDVQQIDAJLQTEPMA0GA1UECgwGT3JhY2xlMQ4wDAYDVQQLDAVN
eVNRTDEmMCQGA1UEAwwdTXlTUUwgQ1JMIHRlc3QgY2EgY2VydGlmaWNhdGUwggEi
MA0GCSqGSIb3DQEBAQUAA4IBDwAwggEKAoIBAQDJCZVUoJH9+SYvysTOSswlckQ0
8mh6TZGrGlSQUPwUivJbg/NoyQ68D90RLyVDntRaz+AqT2PYHd7vfWsUT48umkS4
T0GziJVx4s2LIpZ8Vfs5GmsYBRgslRWfsOOSdsXG4z9WRC3+pWHXR9uEvggZ1jnz
T91s2f/hwrp4K4eoMgLiqeeKFLvFeqgz/1QLXMYgzy7j7vX+TJgmpfwaSj9ij9+m
MdKg9MgE3fW4Xmtsw8TH2oAZL0Dh3305oJ3H/lnbdfFeL9oHf1+sCxjrD2GlF7Ge
y9VWmrRUiZNFK5B+78OiNtV/ZKqieSN0jAKTW9rdEAMBnoRJTY8ydfFjV4gZAgMB
AAGjUzBRMB0GA1UdDgQWBBSnLspTBVIGEr3t/8+4ujDneh+WRjAfBgNVHSMEGDAW
gBSnLspTBVIGEr3t/8+4ujDneh+WRjAPBgNVHRMBAf8EBTADAQH/MA0GCSqGSIb3
DQEBCwUAA4IBAQBTzgh5lpQimx+OLzytex8ORX5lwcJ/RvFzvpzkGywTvb8FlSs8
bnBishQepmDjp7dAIpfbdNH8Rye63olQfuE79T6VqgHoiub5SUiX0pGgH52CtTUW
WAHRgh203Gi5G4T74+wGplVp6YRpfTS63d1XFRqe2PTHRJgHNWbsph6RuKSym4VS
6Jjm6CiM1B6ORVBYyWj9tEtPt1ifRXuxEq59cA1LQn5G0FrVIZ/xmbYhdTR7KthF
LvlN+rRyqJ4i5mZLgR2OslTzDwIXaH95yt+nXRdwUL9H31pq4X+vq8pUhq3YNcW4
951yDtvcDMMILdGaGFzDwWR685pabWkS4f3C
-----END CERTIFICATE-----
