Certificate:
    Data:
        Version: 3 (0x2)
        Serial Number:
            f9:e2:f3:98:0e:2b:05:7f
        Signature Algorithm: sha1WithRSAEncryption
        Issuer: C=BG, ST=Plovdiv, O=Oracle, OU=MySQL, CN=MySQL CRL test CA certificate
        Validity
            Not Before: May 17 15:21:12 2012 GMT
            Not After : May 15 15:21:12 2022 GMT
        Subject: C=BG, ST=Plovdiv, O=Oracle, OU=MySQL, CN=MySQL CRL test client certificate revoked
        Subject Public Key Info:
            Public Key Algorithm: rsaEncryption
            RSA Public Key: (1024 bit)
                Modulus (1024 bit):
                    00:a5:dd:99:d5:fd:3a:9c:06:f4:2e:1a:e0:52:1b:
                    f6:24:ca:e8:07:41:38:a6:9c:5f:84:5a:07:43:9e:
                    de:91:37:6d:40:44:cd:8e:48:a2:b8:c4:39:75:41:
                    d6:aa:97:26:01:37:76:7b:02:45:18:78:e1:1e:56:
                    5d:f8:5d:e0:cc:a4:c4:bd:0d:1b:40:6e:00:4e:e0:
                    ba:06:61:9f:81:f2:29:ae:db:31:b2:8f:26:2e:32:
                    c5:74:b2:09:5f:76:a8:4a:5e:b4:f1:44:59:7e:3d:
                    2a:9c:aa:b0:71:a4:2e:70:3b:8c:f2:93:2f:87:c1:
                    a6:87:e6:6b:7c:1f:a5:f5:6b
                Exponent: 65537 (0x10001)
        X509v3 extensions:
            X509v3 Basic Constraints: 
                CA:FALSE
            Netscape Comment: 
                OpenSSL Generated Certificate
            X509v3 Subject Key Identifier: 
                20:75:FB:E7:F0:11:4F:64:48:C6:F9:85:7C:1E:3A:C7:F0:16:8F:51
            X509v3 Authority Key Identifier: 
                keyid:85:AB:E6:A7:57:88:7D:8D:BE:EB:64:53:73:94:64:CD:4B:8D:29:12

    Signature Algorithm: sha1WithRSAEncryption
        d9:23:63:c2:da:d4:4a:53:85:c2:87:ab:e5:a4:7b:ea:cb:8a:
        0e:6e:6c:ef:a7:a3:e2:ff:29:9e:af:d0:24:08:40:44:0e:0c:
        91:5c:5e:38:25:c9:1b:c5:55:b1:17:01:12:57:60:5b:78:f5:
        e3:3c:47:e0:df:10:11:38:f6:18:ce:37:5f:ec:c6:a9:95:39:
        db:36:5d:78:12:9a:57:f8:bc:4d:cd:e5:e9:77:85:71:72:d1:
        66:99:0c:35:51:8a:3d:61:cf:0f:21:5e:e1:cb:4b:33:f7:68:
        8c:d2:fc:ca:a5:44:a7:d6:d3:76:9a:60:fb:0b:17:97:ee:3a:
        23:22
-----BEGIN CERTIFICATE-----
MIIC1TCCAj6gAwIBAgIJAPni85gOKwV/MA0GCSqGSIb3DQEBBQUAMGgxCzAJBgNV
BAYTAkJHMRAwDgYDVQQIEwdQbG92ZGl2MQ8wDQYDVQQKEwZPcmFjbGUxDjAMBgNV
BAsTBU15U1FMMSYwJAYDVQQDEx1NeVNRTCBDUkwgdGVzdCBDQSBjZXJ0aWZpY2F0
ZTAeFw0xMjA1MTcxNTIxMTJaFw0yMjA1MTUxNTIxMTJaMHQxCzAJBgNVBAYTAkJH
MRAwDgYDVQQIEwdQbG92ZGl2MQ8wDQYDVQQKEwZPcmFjbGUxDjAMBgNVBAsTBU15
U1FMMTIwMAYDVQQDEylNeVNRTCBDUkwgdGVzdCBjbGllbnQgY2VydGlmaWNhdGUg
cmV2b2tlZDCBnzANBgkqhkiG9w0BAQEFAAOBjQAwgYkCgYEApd2Z1f06nAb0Lhrg
Uhv2JMroB0E4ppxfhFoHQ57ekTdtQETNjkiiuMQ5dUHWqpcmATd2ewJFGHjhHlZd
+F3gzKTEvQ0bQG4ATuC6BmGfgfIprtsxso8mLjLFdLIJX3aoSl608URZfj0qnKqw
caQucDuM8pMvh8Gmh+ZrfB+l9WsCAwEAAaN7MHkwCQYDVR0TBAIwADAsBglghkgB
hvhCAQ0EHxYdT3BlblNTTCBHZW5lcmF0ZWQgQ2VydGlmaWNhdGUwHQYDVR0OBBYE
FCB1++fwEU9kSMb5hXweOsfwFo9RMB8GA1UdIwQYMBaAFIWr5qdXiH2NvutkU3OU
ZM1LjSkSMA0GCSqGSIb3DQEBBQUAA4GBANkjY8La1EpThcKHq+Wke+rLig5ubO+n
o+L/KZ6v0CQIQEQODJFcXjglyRvFVbEXARJXYFt49eM8R+DfEBE49hjON1/sxqmV
Ods2XXgSmlf4vE3N5el3hXFy0WaZDDVRij1hzw8hXuHLSzP3aIzS/MqlRKfW03aa
YPsLF5fuOiMi
-----END CERTIFICATE-----
