Certificate:
    Data:
        Version: 3 (0x2)
        Serial Number:
            a5:85:ec:60:b1:68:44:24
        Signature Algorithm: sha1WithRSAEncryption
        Issuer: C=BG, ST=Plovdiv, O=Oracle, OU=MySQL, CN=MySQL CRL test CA certificate
        Validity
            Not Before: Jun 17 07:32:32 2011 GMT
            Not After : Jun 16 07:32:32 2014 GMT
        Subject: C=BG, ST=Plovdiv, L=Plovdiv, O=Oracle, OU=MySQL, CN=MySQL CRL test client certificate
        Subject Public Key Info:
            Public Key Algorithm: rsaEncryption
            RSA Public Key: (1024 bit)
                Modulus (1024 bit):
                    00:bd:18:bf:c5:37:7e:f7:8a:1d:22:c0:4f:5a:70:
                    51:ea:df:56:4f:29:e9:c7:a5:8a:ab:5a:48:b5:f9:
                    bf:cd:2a:73:f8:fa:13:20:fd:33:17:11:93:51:f0:
                    4f:fa:a5:6a:bc:37:94:92:de:7d:c1:09:c6:43:c0:
                    f7:cd:dd:ac:06:bf:fe:0c:9f:fc:ec:5b:83:a1:1e:
                    34:d8:af:50:17:4d:84:51:20:44:76:81:d1:12:76:
                    06:fb:05:29:59:47:0f:9d:97:f1:41:2f:92:0d:e4:
                    b6:c1:fb:cf:75:95:a9:0f:cf:b3:4f:69:a3:d1:14:
                    e9:6b:cf:be:53:bd:4e:3f:5d
                Exponent: 65537 (0x10001)
        X509v3 extensions:
            X509v3 Basic Constraints: 
                CA:FALSE
            Netscape Comment: 
                OpenSSL Generated Certificate
            X509v3 Subject Key Identifier: 
                39:37:9C:0B:9F:E4:8E:48:48:71:23:2B:CA:F0:C1:F9:0B:F2:0A:D0
            X509v3 Authority Key Identifier: 
                keyid:C4:1D:2C:68:3F:5F:29:51:EC:C5:54:61:CE:16:13:D2:72:5D:63:E8

    Signature Algorithm: sha1WithRSAEncryption
        18:03:42:13:af:86:c3:eb:9c:40:4a:d8:9e:e7:25:e1:43:7b:
        2f:55:1b:e6:ec:bf:9b:56:b3:c7:cb:78:cd:d2:00:46:39:96:
        d8:f8:cd:9d:0e:e7:97:51:93:f8:5b:ed:4f:5a:16:6b:56:fb:
        c0:d1:58:3c:7f:e9:64:aa:11:03:ff:3b:5e:9d:6d:c8:53:a8:
        4a:30:f7:a6:ae:7c:e0:ed:16:c4:a0:07:9c:75:1a:23:58:13:
        70:9e:aa:cc:b8:1d:70:26:85:ad:e1:f3:34:83:1b:e0:72:44:
        c4:28:d5:c5:6a:43:83:47:fe:8b:ab:ac:07:55:ff:2c:d9:0f:
        5f:c7
-----BEGIN CERTIFICATE-----
MIIC3zCCAkigAwIBAgIJAKWF7GCxaEQkMA0GCSqGSIb3DQEBBQUAMGgxCzAJBgNV
BAYTAkJHMRAwDgYDVQQIEwdQbG92ZGl2MQ8wDQYDVQQKEwZPcmFjbGUxDjAMBgNV
BAsTBU15U1FMMSYwJAYDVQQDEx1NeVNRTCBDUkwgdGVzdCBDQSBjZXJ0aWZpY2F0
ZTAeFw0xMTA2MTcwNzMyMzJaFw0xNDA2MTYwNzMyMzJaMH4xCzAJBgNVBAYTAkJH
MRAwDgYDVQQIEwdQbG92ZGl2MRAwDgYDVQQHEwdQbG92ZGl2MQ8wDQYDVQQKEwZP
cmFjbGUxDjAMBgNVBAsTBU15U1FMMSowKAYDVQQDEyFNeVNRTCBDUkwgdGVzdCBj
bGllbnQgY2VydGlmaWNhdGUwgZ8wDQYJKoZIhvcNAQEBBQADgY0AMIGJAoGBAL0Y
v8U3fveKHSLAT1pwUerfVk8p6celiqtaSLX5v80qc/j6EyD9MxcRk1HwT/qlarw3
lJLefcEJxkPA983drAa//gyf/Oxbg6EeNNivUBdNhFEgRHaB0RJ2BvsFKVlHD52X
8UEvkg3ktsH7z3WVqQ/Ps09po9EU6WvPvlO9Tj9dAgMBAAGjezB5MAkGA1UdEwQC
MAAwLAYJYIZIAYb4QgENBB8WHU9wZW5TU0wgR2VuZXJhdGVkIENlcnRpZmljYXRl
MB0GA1UdDgQWBBQ5N5wLn+SOSEhxIyvK8MH5C/IK0DAfBgNVHSMEGDAWgBTEHSxo
P18pUezFVGHOFhPScl1j6DANBgkqhkiG9w0BAQUFAAOBgQAYA0ITr4bD65xAStie
5yXhQ3svVRvm7L+bVrPHy3jN0gBGOZbY+M2dDueXUZP4W+1PWhZrVvvA0Vg8f+lk
qhED/ztenW3IU6hKMPemrnzg7RbEoAecdRojWBNwnqrMuB1wJoWt4fM0gxvgckTE
KNXFakODR/6Lq6wHVf8s2Q9fxw==
-----END CERTIFICATE-----
