Certificate:
    Data:
        Version: 3 (0x2)
        Serial Number:
            27:9a:6f:41:cc:a4:9a:73:13:55:a3:b6:f4:3f:71:d5:8a:a8:91:1e
        Signature Algorithm: sha256WithRSAEncryption
        Issuer: C=IN, ST=KA, O=Oracle, OU=MySQL, CN=MySQL CRL test ca certificate
        Validity
            Not Before: Jul  1 12:10:59 2019 GMT
            Not After : Jun 30 12:10:59 2020 GMT
        Subject: C=IN, ST=KA, L=Bangalore, O=Oracle, OU=MySQL, CN=MySQL CRL test server certificate
        Subject Public Key Info:
            Public Key Algorithm: rsaEncryption
                RSA Public-Key: (2048 bit)
                Modulus:
                    00:b3:b7:2d:68:62:08:c9:5b:90:25:89:98:4c:6e:
                    04:f4:5d:ff:e7:4e:18:37:db:63:ab:56:d5:7e:3a:
                    be:37:cd:e6:5a:c2:73:a7:24:a8:f9:1a:bf:05:e6:
                    14:5f:31:7f:f4:73:8b:9c:c2:89:e5:fd:d9:5b:94:
                    a9:a7:b4:48:a6:b0:95:d2:62:14:b3:15:47:26:83:
                    69:63:99:b6:48:ca:f2:ef:bd:1e:de:23:4c:e7:28:
                    54:13:ca:03:49:cb:07:a6:7d:e7:48:9d:03:88:5d:
                    3b:47:50:f6:17:21:34:15:c5:cd:4f:40:f9:ca:12:
                    db:b6:53:0c:08:c3:a0:0b:68:03:0d:45:9f:4f:26:
                    c3:23:3f:ef:6f:4a:98:0d:6a:2b:b5:4a:23:e3:89:
                    08:bd:c0:37:ef:db:be:82:4d:26:47:93:f4:de:3f:
                    04:ef:3c:d3:97:e3:c4:c5:65:9e:2f:f9:8a:13:f2:
                    74:12:ab:ff:99:9e:ef:d8:48:11:55:ba:f2:97:6e:
                    04:75:0e:e4:18:85:34:20:a1:da:db:60:35:98:0e:
                    d0:44:27:17:81:d1:6a:5a:93:28:47:c4:4f:37:26:
                    72:db:d9:a9:a9:c2:e5:90:16:c3:49:89:67:68:0f:
                    e7:dd:5f:a7:29:26:62:a5:c7:63:0f:1b:f6:9c:b8:
                    86:c5
                Exponent: 65537 (0x10001)
        X509v3 extensions:
            X509v3 Subject Key Identifier: 
                50:0D:53:3F:37:4C:2D:EE:F0:F7:67:48:53:36:18:C8:50:65:60:3B
            X509v3 Authority Key Identifier: 
                keyid:A7:2E:CA:53:05:52:06:12:BD:ED:FF:CF:B8:BA:30:E7:7A:1F:96:46

            X509v3 Basic Constraints: critical
                CA:TRUE
    Signature Algorithm: sha256WithRSAEncryption
         17:be:6a:bc:a9:f0:5a:d9:72:bd:3b:83:f9:e1:ef:eb:a3:b3:
         b4:9c:e0:fd:9a:ad:c1:e2:12:0b:9f:fa:ca:9a:14:b5:43:96:
         50:da:50:b1:42:9c:15:87:56:b2:5d:d5:ce:4e:dc:0e:a9:98:
         0b:05:6e:57:ca:99:0f:28:9c:d5:b7:d2:c1:97:da:5f:34:b1:
         f2:73:4c:27:39:cc:40:86:80:63:18:74:e3:0f:c7:02:6d:76:
         98:a6:2a:b5:e3:13:8f:d8:5c:42:8e:33:c5:dd:0e:bc:05:90:
         96:9a:b8:de:d5:44:57:47:70:c9:26:0a:4b:96:0a:95:de:8e:
         b4:f6:1f:8e:96:41:1d:d6:65:28:1c:f3:6d:3d:b1:b2:38:c7:
         f6:b9:f3:fe:a4:98:fe:45:46:d2:04:a3:40:76:5f:3d:df:60:
         71:dd:8a:bd:83:b3:be:54:87:f5:df:8d:40:e8:68:c1:90:90:
         dc:de:1b:e3:2c:45:2b:50:53:b2:95:1f:c8:ea:ad:72:5d:5b:
         94:21:eb:d3:14:4a:41:7f:c4:aa:88:41:a8:1f:61:fb:51:0d:
         58:e0:2d:08:86:49:62:84:85:da:8f:9e:cd:1a:f7:11:b5:a1:
         58:56:d8:eb:a7:99:2d:1b:df:98:65:9f:8f:ab:9b:e0:32:95:
         23:20:cf:82
-----BEGIN CERTIFICATE-----
MIIDvzCCAqegAwIBAgIUJ5pvQcykmnMTVaO29D9x1YqokR4wDQYJKoZIhvcNAQEL
BQAwYzELMAkGA1UEBhMCSU4xCzAJBgNVBAgMAktBMQ8wDQYDVQQKDAZPcmFjbGUx
DjAMBgNVBAsMBU15U1FMMSYwJAYDVQQDDB1NeVNRTCBDUkwgdGVzdCBjYSBjZXJ0
aWZpY2F0ZTAeFw0xOTA3MDExMjEwNTlaFw0yMDA2MzAxMjEwNTlaMHsxCzAJBgNV
BAYTAklOMQswCQYDVQQIDAJLQTESMBAGA1UEBwwJQmFuZ2Fsb3JlMQ8wDQYDVQQK
DAZPcmFjbGUxDjAMBgNVBAsMBU15U1FMMSowKAYDVQQDDCFNeVNRTCBDUkwgdGVz
dCBzZXJ2ZXIgY2VydGlmaWNhdGUwggEiMA0GCSqGSIb3DQEBAQUAA4IBDwAwggEK
AoIBAQCzty1oYgjJW5AliZhMbgT0Xf/nThg322OrVtV+Or43zeZawnOnJKj5Gr8F
5hRfMX/0c4ucwonl/dlblKmntEimsJXSYhSzFUcmg2ljmbZIyvLvvR7eI0znKFQT
ygNJywemfedInQOIXTtHUPYXITQVxc1PQPnKEtu2UwwIw6ALaAMNRZ9PJsMjP+9v
SpgNaiu1SiPjiQi9wDfv276CTSZHk/TePwTvPNOX48TFZZ4v+YoT8nQSq/+Znu/Y
SBFVuvKXbgR1DuQYhTQgodrbYDWYDtBEJxeB0WpakyhHxE83JnLb2ampwuWQFsNJ
iWdoD+fdX6cpJmKlx2MPG/acuIbFAgMBAAGjUzBRMB0GA1UdDgQWBBRQDVM/N0wt
7vD3Z0hTNhjIUGVgOzAfBgNVHSMEGDAWgBSnLspTBVIGEr3t/8+4ujDneh+WRjAP
BgNVHRMBAf8EBTADAQH/MA0GCSqGSIb3DQEBCwUAA4IBAQAXvmq8qfBa2XK9O4P5
4e/ro7O0nOD9mq3B4hILn/rKmhS1Q5ZQ2lCxQpwVh1ayXdXOTtwOqZgLBW5XypkP
KJzVt9LBl9pfNLHyc0wnOcxAhoBjGHTjD8cCbXaYpiq14xOP2FxCjjPF3Q68BZCW
mrje1URXR3DJJgpLlgqV3o609h+OlkEd1mUoHPNtPbGyOMf2ufP+pJj+RUbSBKNA
dl8932Bx3Yq9g7O+VIf1341A6GjBkJDc3hvjLEUrUFOylR/I6q1yXVuUIevTFEpB
f8SqiEGoH2H7UQ1Y4C0IhklihIXaj57NGvcRtaFYVtjrp5ktG9+YZZ+Pq5vgMpUj
IM+C
-----END CERTIFICATE-----
