Certificate:
    Data:
        Version: 1 (0x0)
        Serial Number: 1 (0x1)
    Signature Algorithm: sha256WithRSAEncryption
        Issuer: C=IN, ST=Karnataka, L=Bengaluru, O=Oracle, OU=MySQL, CN=MySQL CRL test ca certificate
        Validity
            Not Before: Jul  1 07:50:41 2020 GMT
            Not After : May 10 07:50:41 2030 GMT
        Subject: C=IN, ST=Karnataka, L=Bengaluru, O=Oracle, OU=MySQL, CN=MySQL CRL test server certificate
        Subject Public Key Info:
            Public Key Algorithm: rsaEncryption
                Public-Key: (2048 bit)
                Modulus:
                    00:f6:43:d5:3b:37:86:9f:54:a7:96:23:c6:90:73:
                    a2:cb:79:bc:77:1a:18:dc:ae:30:36:5c:41:e5:a7:
                    d0:bc:93:08:7e:7b:2c:9a:00:bf:9d:0f:ab:82:56:
                    e6:ad:f1:3a:6a:e2:49:5d:02:59:0e:03:10:63:b1:
                    83:f9:73:19:40:ec:8a:a0:1e:17:c9:53:74:ca:ca:
                    2b:2f:7a:87:98:dc:12:e6:c8:d9:6e:3b:bc:d3:c5:
                    f3:f4:fa:14:e2:5a:12:f2:3a:79:82:b7:a9:6f:21:
                    f6:c7:79:a0:c7:56:05:a8:01:64:e8:f0:67:81:29:
                    af:21:dc:08:02:8e:b8:cf:38:f1:ef:a6:ea:18:14:
                    43:63:21:e8:a3:fe:78:78:b9:f2:04:6a:c8:32:48:
                    66:4e:6e:4f:22:28:89:42:27:42:e5:f4:76:38:77:
                    80:88:2d:73:c8:36:ab:24:40:68:fc:34:83:ba:1c:
                    07:99:e3:3d:69:49:08:cd:4f:74:83:4e:33:5a:c4:
                    87:65:7f:84:dc:73:80:93:55:21:5a:4d:86:97:b0:
                    8a:93:d1:bc:63:c5:19:b0:8a:77:85:af:c9:74:cf:
                    dd:4b:17:8c:cf:62:b0:bc:1a:3b:3f:b4:18:6b:e7:
                    ad:4e:56:cb:29:be:31:4f:ee:3b:89:97:d6:fa:bd:
                    5b:2b
                Exponent: 65537 (0x10001)
    Signature Algorithm: sha256WithRSAEncryption
         51:bd:1f:2d:64:cb:8c:d3:02:f2:ff:7e:65:3a:fa:78:4c:4b:
         65:5c:8a:75:49:24:df:14:17:6b:84:a2:6a:e1:b8:d6:84:74:
         22:7c:e3:bc:3e:7d:81:c7:2a:df:d6:bc:7b:be:44:a7:26:63:
         1d:09:c1:ea:25:85:4b:14:b3:2f:f8:a5:28:f4:72:36:fc:71:
         d0:c9:8d:b2:b3:d6:88:2a:4e:98:f2:22:fa:cb:c8:4d:7b:c0:
         3b:81:f1:dd:f9:29:bd:f4:69:a4:82:87:c6:3b:4f:2f:75:3d:
         fc:a3:6f:b0:10:80:b4:c5:51:9b:b8:5e:9d:cc:21:38:bc:e9:
         54:11:76:d8:df:46:88:f5:02:b3:6a:02:e2:8c:cd:d8:f7:4e:
         ff:fd:5f:e3:b9:db:52:cb:54:39:29:9a:e6:07:84:ea:38:3f:
         3d:4c:87:ce:6c:5f:c8:18:56:8a:54:8e:6a:d3:f2:77:34:a6:
         6d:f3:5a:51:8a:0d:23:bd:7e:01:07:af:0e:fd:97:73:64:27:
         26:cc:34:d8:1f:f3:58:8b:7f:4b:75:df:39:ff:92:dc:e3:04:
         ea:42:7c:11:7f:77:ab:32:29:c7:59:7e:5d:84:2d:cd:1d:2c:
         61:d4:be:5d:9b:0e:30:2b:31:7e:4f:e6:07:e7:20:10:18:56:
         36:97:19:b3
-----BEGIN CERTIFICATE-----
MIIDdTCCAl0CAQEwDQYJKoZIhvcNAQELBQAwfjELMAkGA1UEBhMCSU4xEjAQBgNV
BAgMCUthcm5hdGFrYTESMBAGA1UEBwwJQmVuZ2FsdXJ1MQ8wDQYDVQQKDAZPcmFj
bGUxDjAMBgNVBAsMBU15U1FMMSYwJAYDVQQDDB1NeVNRTCBDUkwgdGVzdCBjYSBj
ZXJ0aWZpY2F0ZTAeFw0yMDA3MDEwNzUwNDFaFw0zMDA1MTAwNzUwNDFaMIGCMQsw
CQYDVQQGEwJJTjESMBAGA1UECAwJS2FybmF0YWthMRIwEAYDVQQHDAlCZW5nYWx1
cnUxDzANBgNVBAoMBk9yYWNsZTEOMAwGA1UECwwFTXlTUUwxKjAoBgNVBAMMIU15
U1FMIENSTCB0ZXN0IHNlcnZlciBjZXJ0aWZpY2F0ZTCCASIwDQYJKoZIhvcNAQEB
BQADggEPADCCAQoCggEBAPZD1Ts3hp9Up5YjxpBzost5vHcaGNyuMDZcQeWn0LyT
CH57LJoAv50Pq4JW5q3xOmriSV0CWQ4DEGOxg/lzGUDsiqAeF8lTdMrKKy96h5jc
EubI2W47vNPF8/T6FOJaEvI6eYK3qW8h9sd5oMdWBagBZOjwZ4EpryHcCAKOuM84
8e+m6hgUQ2Mh6KP+eHi58gRqyDJIZk5uTyIoiUInQuX0djh3gIgtc8g2qyRAaPw0
g7ocB5njPWlJCM1PdINOM1rEh2V/hNxzgJNVIVpNhpewipPRvGPFGbCKd4WvyXTP
3UsXjM9isLwaOz+0GGvnrU5Wyym+MU/uO4mX1vq9WysCAwEAATANBgkqhkiG9w0B
AQsFAAOCAQEAUb0fLWTLjNMC8v9+ZTr6eExLZVyKdUkk3xQXa4SiauG41oR0Inzj
vD59gccq39a8e75EpyZjHQnB6iWFSxSzL/ilKPRyNvxx0MmNsrPWiCpOmPIi+svI
TXvAO4Hx3fkpvfRppIKHxjtPL3U9/KNvsBCAtMVRm7hencwhOLzpVBF22N9GiPUC
s2oC4ozN2PdO//1f47nbUstUOSma5geE6jg/PUyHzmxfyBhWilSOatPydzSmbfNa
UYoNI71+AQevDv2Xc2QnJsw02B/zWIt/S3XfOf+S3OME6kJ8EX93qzIpx1l+XYQt
zR0sYdS+XZsOMCsxfk/mB+cgEBhWNpcZsw==
-----END CERTIFICATE-----
