Certificate:
    Data:
        Version: 3 (0x2)
        Serial Number:
            f9:e2:f3:98:0e:2b:05:7e
        Signature Algorithm: sha1WithRSAEncryption
        Issuer: C=BG, ST=Plovdiv, O=Oracle, OU=MySQL, CN=MySQL CRL test CA certificate
        Validity
            Not Before: May 17 15:18:14 2012 GMT
            Not After : May 15 15:18:14 2022 GMT
        Subject: C=BG, ST=Plovdiv, O=Oracle, OU=MySQL, CN=MySQL CRL test client certificate
        Subject Public Key Info:
            Public Key Algorithm: rsaEncryption
            RSA Public Key: (1024 bit)
                Modulus (1024 bit):
                    00:d8:03:97:99:2f:54:86:ec:b5:79:4f:8f:ff:bb:
                    b8:23:e0:9b:d3:d4:ba:40:2e:34:dd:ad:8c:2c:43:
                    f9:7b:d5:4f:5c:ef:47:bd:e3:b2:ac:76:ea:b2:d5:
                    97:dc:99:4e:fa:d8:13:48:a2:cb:ee:3f:40:7a:fe:
                    af:f1:d8:cd:c8:5b:1f:f7:7c:a4:7f:cf:fe:02:91:
                    e6:d8:39:ef:e8:4f:a8:ff:b6:78:29:78:72:24:a4:
                    f0:e4:67:8a:41:50:5e:9d:6b:a8:4f:06:f2:b4:8e:
                    22:f9:05:e6:31:03:f9:1b:a8:29:16:6d:7c:5d:bd:
                    60:81:ac:6e:9c:63:5b:a4:41
                Exponent: 65537 (0x10001)
        X509v3 extensions:
            X509v3 Basic Constraints: 
                CA:FALSE
            Netscape Comment: 
                OpenSSL Generated Certificate
            X509v3 Subject Key Identifier: 
                7A:9B:4D:5A:CD:9A:CB:14:B2:A5:D3:B0:89:24:6E:BC:8E:1E:99:1D
            X509v3 Authority Key Identifier: 
                keyid:85:AB:E6:A7:57:88:7D:8D:BE:EB:64:53:73:94:64:CD:4B:8D:29:12

    Signature Algorithm: sha1WithRSAEncryption
        ba:04:f4:20:39:e3:94:2b:5b:a4:18:2b:8a:0b:12:bd:58:7d:
        0b:0c:cd:ab:b2:7c:7a:57:2f:8b:31:06:ce:6d:26:7c:50:5c:
        74:fd:3c:21:8c:20:04:ef:55:e9:2a:fe:f5:35:2d:86:d0:1c:
        9f:05:96:91:9e:2f:74:a7:50:db:55:dd:ba:ff:8a:9b:ce:50:
        03:5d:e1:10:5b:a3:4b:d5:46:73:6f:52:e8:e5:0c:b6:23:7a:
        22:1e:30:86:9f:34:d2:3e:66:2c:dc:b6:96:0d:ee:21:59:5c:
        17:50:23:a5:9a:2d:37:d8:ef:85:23:c0:e8:84:14:df:95:35:
        1a:18
-----BEGIN CERTIFICATE-----
MIICzTCCAjagAwIBAgIJAPni85gOKwV+MA0GCSqGSIb3DQEBBQUAMGgxCzAJBgNV
BAYTAkJHMRAwDgYDVQQIEwdQbG92ZGl2MQ8wDQYDVQQKEwZPcmFjbGUxDjAMBgNV
BAsTBU15U1FMMSYwJAYDVQQDEx1NeVNRTCBDUkwgdGVzdCBDQSBjZXJ0aWZpY2F0
ZTAeFw0xMjA1MTcxNTE4MTRaFw0yMjA1MTUxNTE4MTRaMGwxCzAJBgNVBAYTAkJH
MRAwDgYDVQQIEwdQbG92ZGl2MQ8wDQYDVQQKEwZPcmFjbGUxDjAMBgNVBAsTBU15
U1FMMSowKAYDVQQDEyFNeVNRTCBDUkwgdGVzdCBjbGllbnQgY2VydGlmaWNhdGUw
gZ8wDQYJKoZIhvcNAQEBBQADgY0AMIGJAoGBANgDl5kvVIbstXlPj/+7uCPgm9PU
ukAuNN2tjCxD+XvVT1zvR73jsqx26rLVl9yZTvrYE0iiy+4/QHr+r/HYzchbH/d8
pH/P/gKR5tg57+hPqP+2eCl4ciSk8ORnikFQXp1rqE8G8rSOIvkF5jED+RuoKRZt
fF29YIGsbpxjW6RBAgMBAAGjezB5MAkGA1UdEwQCMAAwLAYJYIZIAYb4QgENBB8W
HU9wZW5TU0wgR2VuZXJhdGVkIENlcnRpZmljYXRlMB0GA1UdDgQWBBR6m01azZrL
FLKl07CJJG68jh6ZHTAfBgNVHSMEGDAWgBSFq+anV4h9jb7rZFNzlGTNS40pEjAN
BgkqhkiG9w0BAQUFAAOBgQC6BPQgOeOUK1ukGCuKCxK9WH0LDM2rsnx6Vy+LMQbO
bSZ8UFx0/TwhjCAE71XpKv71NS2G0ByfBZaRni90p1DbVd26/4qbzlADXeEQW6NL
1UZzb1Lo5Qy2I3oiHjCGnzTSPmYs3LaWDe4hWVwXUCOlmi032O+FI8DohBTflTUa
GA==
-----END CERTIFICATE-----
