Certificate:
    Data:
        Version: 3 (0x2)
        Serial Number:
            bf:07:54:de:af:cf:c4:de
    Signature Algorithm: sha256WithRSAEncryption
        Issuer: C=IN, ST=Karnataka, L=Bengaluru, O=Oracle, OU=MySQL, CN=MySQL CRL test ca certificate
        Validity
            Not Before: Jul  1 07:44:35 2020 GMT
            Not After : Jun 29 07:44:35 2030 GMT
        Subject: C=IN, ST=Karnataka, L=Bengaluru, O=Oracle, OU=MySQL, CN=MySQL CRL test ca certificate
        Subject Public Key Info:
            Public Key Algorithm: rsaEncryption
                Public-Key: (2048 bit)
                Modulus:
                    00:c9:08:13:81:df:5a:aa:45:2a:82:1e:73:4f:d6:
                    2f:6b:7a:78:41:a7:fb:ea:02:5c:30:15:95:6a:a4:
                    60:6b:08:4c:7d:46:4f:1a:7c:14:67:c6:19:e0:bf:
                    c9:12:c3:96:7f:71:12:79:ba:a1:d2:51:1b:fb:f1:
                    0f:43:9d:22:6d:7f:46:a7:94:0c:51:c2:25:ad:36:
                    c8:1c:59:45:91:e1:20:4d:5e:31:b1:33:b1:4b:2b:
                    a0:62:fb:8a:c6:ee:7e:84:77:d2:aa:23:f8:31:74:
                    d5:94:60:72:88:a7:3a:ec:f3:d8:80:28:36:c1:5a:
                    7f:58:be:8c:d2:eb:9d:fb:22:de:ec:2c:d3:41:81:
                    b2:e4:91:e4:da:12:b2:84:0e:8f:f7:b0:1e:36:07:
                    88:87:8e:1d:63:ad:1b:a5:31:39:d2:02:10:e0:97:
                    21:3f:7e:e9:f1:a2:e8:c3:aa:ad:e3:bd:05:62:e1:
                    a2:8d:ed:d5:cd:d7:66:8a:2b:15:dd:e1:91:e2:75:
                    18:c4:50:62:fb:a1:f9:96:93:af:84:78:f7:69:b6:
                    7f:82:f7:c8:97:13:10:46:7b:de:a2:a9:c9:71:78:
                    f1:8e:a1:78:b5:e5:b7:dd:69:4d:8c:1b:ae:34:0e:
                    5f:94:26:8e:81:b3:23:6e:1f:be:de:e0:e0:41:dc:
                    71:49
                Exponent: 65537 (0x10001)
        X509v3 extensions:
            X509v3 Subject Key Identifier: 
                43:AB:3F:4D:D3:EB:37:3D:3D:2A:FE:BD:4E:C2:8A:DD:C9:E5:B1:B1
            X509v3 Authority Key Identifier: 
                keyid:43:AB:3F:4D:D3:EB:37:3D:3D:2A:FE:BD:4E:C2:8A:DD:C9:E5:B1:B1

            X509v3 Basic Constraints: 
                CA:TRUE
    Signature Algorithm: sha256WithRSAEncryption
         16:b8:f3:2a:4a:f7:82:7b:99:cb:40:20:a1:76:7a:2b:19:c9:
         4f:4f:90:b3:e4:7c:6e:42:28:c8:47:4b:37:12:ab:fa:64:ec:
         d6:50:f8:2f:bd:61:cd:d6:09:96:d3:84:b1:e6:60:ae:99:ae:
         4a:1a:b1:34:a6:ee:b7:3b:1f:6f:cc:94:39:26:e4:9d:d2:02:
         d9:75:ce:e7:dd:e9:3a:b2:c4:84:1a:75:0e:64:ce:32:7f:68:
         5b:81:b7:5e:18:bd:ac:56:69:1c:1a:a0:a1:61:85:f2:11:78:
         50:42:4e:e8:b8:67:8a:50:85:09:75:67:d9:09:e1:2a:61:64:
         24:1a:52:79:12:5c:d1:a5:53:5f:70:63:2b:30:fe:4e:e5:c6:
         3a:7c:f3:36:3e:7b:ab:6b:57:04:12:53:7e:dd:18:63:bf:25:
         ae:b0:14:f8:93:bb:0a:a6:d4:7b:77:60:58:52:ee:9e:76:9c:
         63:ef:84:40:fd:5a:be:54:74:d7:b8:4a:85:09:a0:13:0e:75:
         75:e6:2c:73:1b:e3:94:ff:ad:73:0b:c6:e3:b0:68:56:ce:ff:
         8d:75:f4:9d:14:5c:05:a0:8d:ad:ab:96:aa:4f:58:cb:79:cf:
         5b:85:84:e7:4a:66:54:09:fd:da:c2:3a:3b:ee:3c:3c:0a:66:
         36:bc:a6:f0
-----BEGIN CERTIFICATE-----
MIIDzzCCAregAwIBAgIJAL8HVN6vz8TeMA0GCSqGSIb3DQEBCwUAMH4xCzAJBgNV
BAYTAklOMRIwEAYDVQQIDAlLYXJuYXRha2ExEjAQBgNVBAcMCUJlbmdhbHVydTEP
MA0GA1UECgwGT3JhY2xlMQ4wDAYDVQQLDAVNeVNRTDEmMCQGA1UEAwwdTXlTUUwg
Q1JMIHRlc3QgY2EgY2VydGlmaWNhdGUwHhcNMjAwNzAxMDc0NDM1WhcNMzAwNjI5
MDc0NDM1WjB+MQswCQYDVQQGEwJJTjESMBAGA1UECAwJS2FybmF0YWthMRIwEAYD
VQQHDAlCZW5nYWx1cnUxDzANBgNVBAoMBk9yYWNsZTEOMAwGA1UECwwFTXlTUUwx
JjAkBgNVBAMMHU15U1FMIENSTCB0ZXN0IGNhIGNlcnRpZmljYXRlMIIBIjANBgkq
hkiG9w0BAQEFAAOCAQ8AMIIBCgKCAQEAyQgTgd9aqkUqgh5zT9Yva3p4Qaf76gJc
MBWVaqRgawhMfUZPGnwUZ8YZ4L/JEsOWf3ESebqh0lEb+/EPQ50ibX9Gp5QMUcIl
rTbIHFlFkeEgTV4xsTOxSyugYvuKxu5+hHfSqiP4MXTVlGByiKc67PPYgCg2wVp/
WL6M0uud+yLe7CzTQYGy5JHk2hKyhA6P97AeNgeIh44dY60bpTE50gIQ4JchP37p
8aLow6qt470FYuGije3VzddmiisV3eGR4nUYxFBi+6H5lpOvhHj3abZ/gvfIlxMQ
RnveoqnJcXjxjqF4teW33WlNjBuuNA5flCaOgbMjbh++3uDgQdxxSQIDAQABo1Aw
TjAdBgNVHQ4EFgQUQ6s/TdPrNz09Kv69TsKK3cnlsbEwHwYDVR0jBBgwFoAUQ6s/
TdPrNz09Kv69TsKK3cnlsbEwDAYDVR0TBAUwAwEB/zANBgkqhkiG9w0BAQsFAAOC
AQEAFrjzKkr3gnuZy0AgoXZ6KxnJT0+Qs+R8bkIoyEdLNxKr+mTs1lD4L71hzdYJ
ltOEseZgrpmuShqxNKbutzsfb8yUOSbkndIC2XXO593pOrLEhBp1DmTOMn9oW4G3
Xhi9rFZpHBqgoWGF8hF4UEJO6LhnilCFCXVn2QnhKmFkJBpSeRJc0aVTX3BjKzD+
TuXGOnzzNj57q2tXBBJTft0YY78lrrAU+JO7CqbUe3dgWFLunnacY++EQP1avlR0
17hKhQmgEw51deYscxvjlP+tcwvG47BoVs7/jXX0nRRcBaCNrauWqk9Yy3nPW4WE
50pmVAn92sI6O+48PApmNrym8A==
-----END CERTIFICATE-----
