Certificate:
    Data:
        Version: 1 (0x0)
        Serial Number: 3 (0x3)
    Signature Algorithm: sha256WithRSAEncryption
        Issuer: C=IN, ST=Karnataka, L=Bengaluru, O=Oracle, OU=MySQL, CN=MySQL CRL test ca certificate
        Validity
            Not Before: Jul  1 07:52:41 2020 GMT
            Not After : May 10 07:52:41 2030 GMT
        Subject: C=IN, ST=Karnataka, L=Bengaluru, O=Oracle, OU=MySQL, CN=MySQL CRL test client certificate revoked
        Subject Public Key Info:
            Public Key Algorithm: rsaEncryption
                Public-Key: (2048 bit)
                Modulus:
                    00:c2:57:18:e7:94:ce:44:87:f3:45:8d:e1:c3:a8:
                    a0:1f:9a:04:9a:67:de:4a:41:bc:5d:0f:31:07:9f:
                    e3:d5:82:54:81:b9:dc:77:43:62:51:42:43:cd:8c:
                    31:71:0f:5b:dd:e8:02:c5:f2:3a:be:e4:e9:64:99:
                    df:e5:8f:34:fc:f9:2c:5b:1d:b1:93:8b:b7:c5:55:
                    5e:10:f9:b5:1c:0b:9e:1a:65:3d:ab:2e:51:a5:fd:
                    10:97:57:2d:98:6d:9a:82:0e:ae:25:21:cc:dc:26:
                    01:16:34:8a:f4:67:30:2f:77:4b:56:7b:e4:ec:c2:
                    cf:1e:ec:0d:0a:29:c1:49:2f:5e:6e:75:4f:d7:b4:
                    d0:b2:73:09:9f:25:e0:a8:41:66:e0:78:d4:2b:f5:
                    6e:3c:20:15:3e:75:d1:e3:cc:ee:47:b8:2a:fe:46:
                    f4:bc:01:7a:9f:67:48:12:bc:a1:b9:e1:b7:31:4a:
                    2f:6a:ed:d1:33:7a:26:ab:01:88:05:70:48:8b:87:
                    41:4b:44:78:67:7b:e7:37:8c:b7:41:c0:6a:eb:37:
                    3b:de:a9:91:16:75:f9:14:81:eb:b4:60:db:a0:2e:
                    93:8a:61:91:33:ee:12:2f:85:2c:12:96:30:f1:f5:
                    00:42:16:95:a7:e9:06:30:32:b9:a3:fe:19:1d:fb:
                    28:ff
                Exponent: 65537 (0x10001)
    Signature Algorithm: sha256WithRSAEncryption
         26:ed:c6:62:c6:37:5b:d6:5a:8d:f1:09:4e:ac:0e:d6:0c:fb:
         3c:a0:73:c7:2c:c5:23:ed:ca:b4:27:aa:66:1e:37:e0:5c:3a:
         ff:35:82:f2:da:2e:4a:16:0a:5c:ea:38:9b:63:ce:2e:0c:27:
         e6:e9:77:c7:ba:16:75:f3:1c:9b:9b:83:aa:90:3a:3e:2e:1b:
         01:07:24:d1:c7:a8:e9:d6:30:ea:04:37:7d:ed:dc:d8:36:35:
         ca:df:83:e3:7f:49:b7:a7:06:3b:2b:fa:ed:03:7c:91:39:93:
         44:59:b5:ed:5d:28:30:25:76:c5:5e:67:ce:28:c6:d1:68:48:
         bf:43:33:40:8d:5d:3d:2b:cb:8e:b3:77:cb:a7:41:f2:94:20:
         0a:ab:c7:86:1f:e4:04:84:a4:73:19:ae:e4:ba:82:9a:35:0f:
         44:26:f0:49:0e:9d:08:d3:7d:94:b0:22:ae:62:7a:3e:60:48:
         4b:09:11:4d:bc:1e:80:21:65:6f:21:77:43:be:8c:3d:c9:71:
         c7:c5:88:90:5e:60:26:64:8a:43:45:2e:a3:02:0c:8d:e1:b9:
         76:a6:c9:61:2d:7a:d2:3c:17:c4:74:01:2f:dc:eb:a0:90:f5:
         f7:0a:19:2b:d7:38:fb:c3:aa:c7:b6:76:17:72:1a:41:8f:54:
         95:72:94:bc
-----BEGIN CERTIFICATE-----
MIIDfTCCAmUCAQMwDQYJKoZIhvcNAQELBQAwfjELMAkGA1UEBhMCSU4xEjAQBgNV
BAgMCUthcm5hdGFrYTESMBAGA1UEBwwJQmVuZ2FsdXJ1MQ8wDQYDVQQKDAZPcmFj
bGUxDjAMBgNVBAsMBU15U1FMMSYwJAYDVQQDDB1NeVNRTCBDUkwgdGVzdCBjYSBj
ZXJ0aWZpY2F0ZTAeFw0yMDA3MDEwNzUyNDFaFw0zMDA1MTAwNzUyNDFaMIGKMQsw
CQYDVQQGEwJJTjESMBAGA1UECAwJS2FybmF0YWthMRIwEAYDVQQHDAlCZW5nYWx1
cnUxDzANBgNVBAoMBk9yYWNsZTEOMAwGA1UECwwFTXlTUUwxMjAwBgNVBAMMKU15
U1FMIENSTCB0ZXN0IGNsaWVudCBjZXJ0aWZpY2F0ZSByZXZva2VkMIIBIjANBgkq
hkiG9w0BAQEFAAOCAQ8AMIIBCgKCAQEAwlcY55TORIfzRY3hw6igH5oEmmfeSkG8
XQ8xB5/j1YJUgbncd0NiUUJDzYwxcQ9b3egCxfI6vuTpZJnf5Y80/PksWx2xk4u3
xVVeEPm1HAueGmU9qy5Rpf0Ql1ctmG2agg6uJSHM3CYBFjSK9GcwL3dLVnvk7MLP
HuwNCinBSS9ebnVP17TQsnMJnyXgqEFm4HjUK/VuPCAVPnXR48zuR7gq/kb0vAF6
n2dIEryhueG3MUovau3RM3omqwGIBXBIi4dBS0R4Z3vnN4y3QcBq6zc73qmRFnX5
FIHrtGDboC6TimGRM+4SL4UsEpYw8fUAQhaVp+kGMDK5o/4ZHfso/wIDAQABMA0G
CSqGSIb3DQEBCwUAA4IBAQAm7cZixjdb1lqN8QlOrA7WDPs8oHPHLMUj7cq0J6pm
HjfgXDr/NYLy2i5KFgpc6jibY84uDCfm6XfHuhZ18xybm4OqkDo+LhsBByTRx6jp
1jDqBDd97dzYNjXK34Pjf0m3pwY7K/rtA3yROZNEWbXtXSgwJXbFXmfOKMbRaEi/
QzNAjV09K8uOs3fLp0HylCAKq8eGH+QEhKRzGa7kuoKaNQ9EJvBJDp0I032UsCKu
Yno+YEhLCRFNvB6AIWVvIXdDvow9yXHHxYiQXmAmZIpDRS6jAgyN4bl2pslhLXrS
PBfEdAEv3OugkPX3Chkr1zj7w6rHtnYXchpBj1SVcpS8
-----END CERTIFICATE-----
