Certificate:
    Data:
        Version: 1 (0x0)
        Serial Number: 2 (0x2)
    Signature Algorithm: sha256WithRSAEncryption
        Issuer: C=IN, ST=Karnataka, L=Bengaluru, O=Oracle, OU=MySQL, CN=MySQL CRL test ca certificate
        Validity
            Not Before: Jul  1 07:51:35 2020 GMT
            Not After : May 10 07:51:35 2030 GMT
        Subject: C=IN, ST=Karnataka, L=Bengaluru, O=Oracle, OU=MySQL, CN=MySQL CRL test client certificate
        Subject Public Key Info:
            Public Key Algorithm: rsaEncryption
                Public-Key: (2048 bit)
                Modulus:
                    00:ab:7f:02:81:a3:ce:01:93:02:67:2a:56:e3:51:
                    5a:1d:a0:57:e8:4f:bb:2f:27:4d:13:9e:18:8e:b0:
                    ec:47:a9:9c:cc:ce:24:be:64:c2:86:3f:91:63:d3:
                    23:22:d9:10:e4:44:d5:2e:b9:09:06:e4:8f:0f:91:
                    90:18:a6:f6:bb:de:4c:63:13:2a:59:41:fb:42:c4:
                    05:ce:1a:f2:9e:dd:d5:50:00:55:28:7a:56:63:a9:
                    e0:81:f1:ef:03:61:97:00:88:39:85:a5:9e:08:11:
                    fc:76:5a:59:23:79:d8:45:d2:d3:94:19:78:8a:ca:
                    44:f2:dd:08:df:65:15:0d:d3:b7:df:f5:2c:6c:bb:
                    86:fb:0e:1a:19:be:ee:8a:af:1f:3d:30:6e:4f:42:
                    3d:ca:80:39:d5:05:2d:74:5a:6b:0a:0c:49:7c:8b:
                    95:50:37:46:0e:90:3a:e4:36:58:73:6c:49:69:b0:
                    76:ca:c4:aa:70:48:b2:1f:2a:86:8a:ae:a7:e0:9a:
                    b3:af:5f:7a:67:6a:1a:f3:e8:2e:57:1e:f2:ac:96:
                    a2:ae:39:f3:7f:e3:7f:e3:b4:0f:e1:d3:e3:95:c6:
                    04:2a:5e:ca:7e:79:52:a5:49:be:95:66:72:80:d4:
                    2b:7f:cc:b9:aa:1a:24:27:27:6f:3d:b9:d7:5a:fd:
                    48:23
                Exponent: 65537 (0x10001)
    Signature Algorithm: sha256WithRSAEncryption
         9d:4f:df:b6:eb:02:57:d5:e0:bb:f4:31:5c:2d:0e:ac:51:ce:
         8c:5e:97:58:a8:79:cf:67:be:5c:00:7d:e5:aa:de:5e:8c:61:
         18:39:2d:4e:e3:62:9f:ba:fc:e3:dc:94:6c:1f:40:0c:e4:98:
         26:ac:06:45:8f:dc:73:c8:75:0e:12:b3:46:3c:71:2d:c7:d0:
         fd:07:71:77:68:f9:55:2d:56:66:8b:27:77:c3:af:87:ee:ba:
         21:8a:85:5e:82:93:69:e7:d9:30:3f:53:06:d5:c1:cd:0f:2f:
         be:f8:5b:07:9c:e2:08:d1:ec:a3:a8:e1:c4:49:e7:6a:1d:37:
         b4:41:85:a1:11:43:cd:14:7d:a9:b7:d8:32:ae:75:d1:14:6e:
         99:cf:52:1c:7c:50:5d:57:09:1f:7c:e6:4a:70:60:cc:49:10:
         7a:66:37:2e:a7:ee:5d:11:ed:d7:61:5c:c3:ed:dc:c2:9a:d9:
         c4:92:54:95:67:04:81:ba:8d:ba:a7:c4:81:7a:63:63:52:28:
         5b:35:01:4e:3b:1e:34:55:d8:62:bc:79:db:c8:7a:6f:e7:0a:
         65:83:95:5d:bd:21:38:02:a0:24:d5:e5:5c:17:64:39:23:0d:
         27:62:d3:7f:c5:3b:52:26:ac:f2:13:f5:8a:53:09:d0:52:26:
         69:09:c4:e2
-----BEGIN CERTIFICATE-----
MIIDdTCCAl0CAQIwDQYJKoZIhvcNAQELBQAwfjELMAkGA1UEBhMCSU4xEjAQBgNV
BAgMCUthcm5hdGFrYTESMBAGA1UEBwwJQmVuZ2FsdXJ1MQ8wDQYDVQQKDAZPcmFj
bGUxDjAMBgNVBAsMBU15U1FMMSYwJAYDVQQDDB1NeVNRTCBDUkwgdGVzdCBjYSBj
ZXJ0aWZpY2F0ZTAeFw0yMDA3MDEwNzUxMzVaFw0zMDA1MTAwNzUxMzVaMIGCMQsw
CQYDVQQGEwJJTjESMBAGA1UECAwJS2FybmF0YWthMRIwEAYDVQQHDAlCZW5nYWx1
cnUxDzANBgNVBAoMBk9yYWNsZTEOMAwGA1UECwwFTXlTUUwxKjAoBgNVBAMMIU15
U1FMIENSTCB0ZXN0IGNsaWVudCBjZXJ0aWZpY2F0ZTCCASIwDQYJKoZIhvcNAQEB
BQADggEPADCCAQoCggEBAKt/AoGjzgGTAmcqVuNRWh2gV+hPuy8nTROeGI6w7Eep
nMzOJL5kwoY/kWPTIyLZEORE1S65CQbkjw+RkBim9rveTGMTKllB+0LEBc4a8p7d
1VAAVSh6VmOp4IHx7wNhlwCIOYWlnggR/HZaWSN52EXS05QZeIrKRPLdCN9lFQ3T
t9/1LGy7hvsOGhm+7oqvHz0wbk9CPcqAOdUFLXRaawoMSXyLlVA3Rg6QOuQ2WHNs
SWmwdsrEqnBIsh8qhoqup+Cas69femdqGvPoLlce8qyWoq4583/jf+O0D+HT45XG
BCpeyn55UqVJvpVmcoDUK3/MuaoaJCcnbz2511r9SCMCAwEAATANBgkqhkiG9w0B
AQsFAAOCAQEAnU/ftusCV9Xgu/QxXC0OrFHOjF6XWKh5z2e+XAB95areXoxhGDkt
TuNin7r849yUbB9ADOSYJqwGRY/cc8h1DhKzRjxxLcfQ/Qdxd2j5VS1WZosnd8Ov
h+66IYqFXoKTaefZMD9TBtXBzQ8vvvhbB5ziCNHso6jhxEnnah03tEGFoRFDzRR9
qbfYMq510RRumc9SHHxQXVcJH3zmSnBgzEkQemY3LqfuXRHt12Fcw+3cwprZxJJU
lWcEgbqNuqfEgXpjY1IoWzUBTjseNFXYYrx528h6b+cKZYOVXb0hOAKgJNXlXBdk
OSMNJ2LTf8U7Uias8hP1ilMJ0FImaQnE4g==
-----END CERTIFICATE-----
