Certificate:
    Data:
        Version: 3 (0x2)
        Serial Number:
            f9:e2:f3:98:0e:2b:05:7d
        Signature Algorithm: sha1WithRSAEncryption
        Issuer: C=BG, ST=Plovdiv, O=Oracle, OU=MySQL, CN=MySQL CRL test CA certificate
        Validity
            Not Before: May 17 15:09:56 2012 GMT
            Not After : May 15 15:09:56 2022 GMT
        Subject: C=BG, ST=Plovdiv, O=Oracle, OU=MySQL, CN=MySQL CRL test server certificate
        Subject Public Key Info:
            Public Key Algorithm: rsaEncryption
            RSA Public Key: (1024 bit)
                Modulus (1024 bit):
                    00:af:0b:31:f9:f6:20:3b:6c:3f:9a:84:d0:85:b4:
                    d4:ed:f9:ea:29:37:44:77:2b:37:25:da:9f:b8:f9:
                    b3:02:9d:62:fc:e5:fc:d8:c1:56:7d:4f:7e:fa:6b:
                    4f:f5:2b:98:b2:e2:fe:7c:7e:b8:57:bb:03:a5:2b:
                    03:86:f5:d4:c4:66:6d:41:a7:fa:2a:09:02:7a:8e:
                    c7:cd:44:15:46:64:fc:77:99:1e:53:06:ef:c5:d6:
                    b4:19:3a:db:7b:26:16:60:0a:f8:62:ae:40:22:1b:
                    1b:c2:20:2e:b0:bf:18:37:96:5c:a8:16:35:81:1f:
                    f6:4b:3a:14:fb:4c:58:8e:37
                Exponent: 65537 (0x10001)
        X509v3 extensions:
            X509v3 Basic Constraints: 
                CA:FALSE
            Netscape Comment: 
                OpenSSL Generated Certificate
            X509v3 Subject Key Identifier: 
                E1:3D:2B:5B:A1:96:FC:80:19:27:BA:F6:88:94:58:E3:EB:F6:85:10
            X509v3 Authority Key Identifier: 
                keyid:85:AB:E6:A7:57:88:7D:8D:BE:EB:64:53:73:94:64:CD:4B:8D:29:12

    Signature Algorithm: sha1WithRSAEncryption
        67:04:e4:39:2e:80:71:a8:63:ad:7e:e8:61:86:c7:a3:93:9e:
        0d:0a:82:fd:21:29:9a:68:46:fa:95:b0:8d:23:7e:78:68:0f:
        a9:19:3a:05:a1:df:b5:78:95:7c:f1:7f:8c:2a:40:23:c0:2b:
        c8:a5:b0:1a:0e:8a:c4:42:ac:fc:e3:9d:f2:bb:e9:7f:75:b5:
        94:2e:64:eb:ac:33:53:cd:8f:e8:4d:17:80:f7:ad:dd:03:57:
        3e:e9:65:76:d3:c1:14:13:62:23:4b:bf:e1:38:0e:da:d0:74:
        8e:52:9b:9d:9e:cc:ba:e5:a1:94:d1:f2:76:f9:c5:c7:ab:60:
        01:c8
-----BEGIN CERTIFICATE-----
MIICzTCCAjagAwIBAgIJAPni85gOKwV9MA0GCSqGSIb3DQEBBQUAMGgxCzAJBgNV
BAYTAkJHMRAwDgYDVQQIEwdQbG92ZGl2MQ8wDQYDVQQKEwZPcmFjbGUxDjAMBgNV
BAsTBU15U1FMMSYwJAYDVQQDEx1NeVNRTCBDUkwgdGVzdCBDQSBjZXJ0aWZpY2F0
ZTAeFw0xMjA1MTcxNTA5NTZaFw0yMjA1MTUxNTA5NTZaMGwxCzAJBgNVBAYTAkJH
MRAwDgYDVQQIEwdQbG92ZGl2MQ8wDQYDVQQKEwZPcmFjbGUxDjAMBgNVBAsTBU15
U1FMMSowKAYDVQQDEyFNeVNRTCBDUkwgdGVzdCBzZXJ2ZXIgY2VydGlmaWNhdGUw
gZ8wDQYJKoZIhvcNAQEBBQADgY0AMIGJAoGBAK8LMfn2IDtsP5qE0IW01O356ik3
RHcrNyXan7j5swKdYvzl/NjBVn1PfvprT/UrmLLi/nx+uFe7A6UrA4b11MRmbUGn
+ioJAnqOx81EFUZk/HeZHlMG78XWtBk623smFmAK+GKuQCIbG8IgLrC/GDeWXKgW
NYEf9ks6FPtMWI43AgMBAAGjezB5MAkGA1UdEwQCMAAwLAYJYIZIAYb4QgENBB8W
HU9wZW5TU0wgR2VuZXJhdGVkIENlcnRpZmljYXRlMB0GA1UdDgQWBBThPStboZb8
gBknuvaIlFjj6/aFEDAfBgNVHSMEGDAWgBSFq+anV4h9jb7rZFNzlGTNS40pEjAN
BgkqhkiG9w0BAQUFAAOBgQBnBOQ5LoBxqGOtfuhhhsejk54NCoL9ISmaaEb6lbCN
I354aA+pGToFod+1eJV88X+MKkAjwCvIpbAaDorEQqz8453yu+l/dbWULmTrrDNT
zY/oTReA963dA1c+6WV208EUE2IjS7/hOA7a0HSOUpudnsy65aGU0fJ2+cXHq2AB
yA==
-----END CERTIFICATE-----
