Certificate:
    Data:
        Version: 3 (0x2)
        Serial Number:
            a5:85:ec:60:b1:68:44:23
        Signature Algorithm: sha1WithRSAEncryption
        Issuer: C=BG, ST=Plovdiv, O=Oracle, OU=MySQL, CN=MySQL CRL test CA certificate
        Validity
            Not Before: Jun 17 07:29:11 2011 GMT
            Not After : Jun 16 07:29:11 2014 GMT
        Subject: C=BG, ST=Plovdiv, L=Plovdiv, O=Oracle, OU=MySQL, CN=MySQL CRL test server certificate
        Subject Public Key Info:
            Public Key Algorithm: rsaEncryption
            RSA Public Key: (1024 bit)
                Modulus (1024 bit):
                    00:c4:c6:01:29:db:e6:62:40:07:bd:43:ce:37:8e:
                    90:0e:3c:86:cc:6a:0c:40:8e:8e:30:27:f2:84:d3:
                    59:e8:7d:e7:97:1e:0d:36:08:0b:cc:28:bb:86:b0:
                    0a:64:8c:55:33:f6:ce:19:00:08:b9:93:ca:84:7e:
                    9a:4e:81:91:e2:56:32:2a:de:b5:1f:82:b9:8f:33:
                    f4:87:f8:10:84:69:69:9a:79:58:08:9a:29:dc:09:
                    79:27:90:ec:af:c8:2d:5f:2e:c1:e1:4a:f1:52:21:
                    37:58:d4:f9:ef:49:ce:a9:9d:eb:dc:f4:34:30:40:
                    d0:d7:38:54:94:2e:d1:ac:25
                Exponent: 65537 (0x10001)
        X509v3 extensions:
            X509v3 Basic Constraints: 
                CA:FALSE
            Netscape Comment: 
                OpenSSL Generated Certificate
            X509v3 Subject Key Identifier: 
                4A:18:8F:0C:A3:CF:D7:4A:38:83:07:FC:26:E3:EB:96:32:73:FA:8C
            X509v3 Authority Key Identifier: 
                keyid:C4:1D:2C:68:3F:5F:29:51:EC:C5:54:61:CE:16:13:D2:72:5D:63:E8

    Signature Algorithm: sha1WithRSAEncryption
        61:74:cc:62:70:9e:1f:3e:96:ac:cd:54:4f:34:60:1c:27:51:
        f4:d5:f8:2e:d7:18:11:86:4e:b5:52:8c:a1:ef:28:c9:43:d7:
        23:2a:22:15:4a:a3:e7:ff:76:fa:25:be:ed:30:05:ea:12:aa:
        3f:c8:ab:a7:22:02:ea:cf:50:d4:43:31:5f:51:de:4c:e1:fa:
        31:ba:2e:4e:d8:a4:3d:80:ad:17:83:67:0f:1b:6f:0b:74:43:
        ce:36:cb:2f:17:9e:6e:ae:c6:eb:ec:93:70:69:82:42:04:b3:
        a7:31:1f:65:70:ff:06:ce:9c:22:8a:dc:7d:92:bc:04:24:ca:
        20:66
-----BEGIN CERTIFICATE-----
MIIC3zCCAkigAwIBAgIJAKWF7GCxaEQjMA0GCSqGSIb3DQEBBQUAMGgxCzAJBgNV
BAYTAkJHMRAwDgYDVQQIEwdQbG92ZGl2MQ8wDQYDVQQKEwZPcmFjbGUxDjAMBgNV
BAsTBU15U1FMMSYwJAYDVQQDEx1NeVNRTCBDUkwgdGVzdCBDQSBjZXJ0aWZpY2F0
ZTAeFw0xMTA2MTcwNzI5MTFaFw0xNDA2MTYwNzI5MTFaMH4xCzAJBgNVBAYTAkJH
MRAwDgYDVQQIEwdQbG92ZGl2MRAwDgYDVQQHEwdQbG92ZGl2MQ8wDQYDVQQKEwZP
cmFjbGUxDjAMBgNVBAsTBU15U1FMMSowKAYDVQQDEyFNeVNRTCBDUkwgdGVzdCBz
ZXJ2ZXIgY2VydGlmaWNhdGUwgZ8wDQYJKoZIhvcNAQEBBQADgY0AMIGJAoGBAMTG
ASnb5mJAB71DzjeOkA48hsxqDECOjjAn8oTTWeh955ceDTYIC8wou4awCmSMVTP2
zhkACLmTyoR+mk6BkeJWMiretR+CuY8z9If4EIRpaZp5WAiaKdwJeSeQ7K/ILV8u
weFK8VIhN1jU+e9Jzqmd69z0NDBA0Nc4VJQu0awlAgMBAAGjezB5MAkGA1UdEwQC
MAAwLAYJYIZIAYb4QgENBB8WHU9wZW5TU0wgR2VuZXJhdGVkIENlcnRpZmljYXRl
MB0GA1UdDgQWBBRKGI8Mo8/XSjiDB/wm4+uWMnP6jDAfBgNVHSMEGDAWgBTEHSxo
P18pUezFVGHOFhPScl1j6DANBgkqhkiG9w0BAQUFAAOBgQBhdMxicJ4fPpaszVRP
NGAcJ1H01fgu1xgRhk61Uoyh7yjJQ9cjKiIVSqPn/3b6Jb7tMAXqEqo/yKunIgLq
z1DUQzFfUd5M4foxui5O2KQ9gK0Xg2cPG28LdEPONssvF55ursbr7JNwaYJCBLOn
MR9lcP8Gzpwiitx9krwEJMogZg==
-----END CERTIFICATE-----
