Certificate:
    Data:
        Version: 3 (0x2)
        Serial Number:
            a5:85:ec:60:b1:68:44:22
        Signature Algorithm: sha1WithRSAEncryption
        Issuer: C=BG, ST=Plovdiv, O=Oracle, OU=MySQL, CN=MySQL CRL test CA certificate
        Validity
            Not Before: Jun 17 07:27:51 2011 GMT
            Not After : Jun 15 07:27:51 2016 GMT
        Subject: C=BG, ST=Plovdiv, O=Oracle, OU=MySQL, CN=MySQL CRL test CA certificate
        Subject Public Key Info:
            Public Key Algorithm: rsaEncryption
            RSA Public Key: (1024 bit)
                Modulus (1024 bit):
                    00:9b:08:0b:96:19:57:fb:21:79:f4:16:c9:b8:2c:
                    13:2e:e1:fe:5f:6b:18:7d:d4:c4:d7:cd:66:a6:62:
                    0e:b7:28:b1:39:76:62:6e:5a:4a:80:f6:0e:8e:84:
                    3e:cf:2f:91:0d:36:6d:8b:b5:f9:78:96:f0:5f:82:
                    a2:b2:d8:fc:b3:46:b5:30:24:b3:a8:77:60:6c:05:
                    c9:8f:82:fd:ad:9f:26:23:29:56:5b:02:6f:f2:00:
                    31:86:60:b7:8c:56:b3:95:a8:8d:a9:bb:6b:91:fd:
                    5d:f5:6a:21:45:85:63:78:0e:0f:0e:03:6d:53:73:
                    0d:6c:aa:5b:f9:fc:fa:fd:f7
                Exponent: 65537 (0x10001)
        X509v3 extensions:
            X509v3 Subject Key Identifier: 
                C4:1D:2C:68:3F:5F:29:51:EC:C5:54:61:CE:16:13:D2:72:5D:63:E8
            X509v3 Authority Key Identifier: 
                keyid:C4:1D:2C:68:3F:5F:29:51:EC:C5:54:61:CE:16:13:D2:72:5D:63:E8
                DirName:/C=BG/ST=Plovdiv/O=Oracle/OU=MySQL/CN=MySQL CRL test CA certificate
                serial:A5:85:EC:60:B1:68:44:22

            X509v3 Basic Constraints: 
                CA:TRUE
    Signature Algorithm: sha1WithRSAEncryption
        73:dd:2e:76:71:25:c2:fe:7a:c5:46:ca:f2:c7:a0:43:f0:c7:
        3c:24:8d:a6:bd:8d:f2:7c:db:03:1b:2b:8a:c8:23:ae:ef:71:
        25:33:5b:10:61:e7:7d:89:30:a8:67:25:2e:e0:06:30:77:da:
        b8:87:e5:91:cd:c7:8f:c9:7b:3d:9e:86:80:44:02:6b:d1:06:
        85:5d:28:78:cc:a7:a8:35:ac:f7:77:6d:e2:c7:a3:37:bc:9f:
        d3:bf:4a:ca:09:dc:d0:78:0c:59:c7:db:4b:67:f1:09:6d:a9:
        7a:50:2f:1d:2c:a6:b8:81:0e:e6:4b:ee:d9:be:ae:a5:6a:d7:
        56:c4
-----BEGIN CERTIFICATE-----
MIIDHDCCAoWgAwIBAgIJAKWF7GCxaEQiMA0GCSqGSIb3DQEBBQUAMGgxCzAJBgNV
BAYTAkJHMRAwDgYDVQQIEwdQbG92ZGl2MQ8wDQYDVQQKEwZPcmFjbGUxDjAMBgNV
BAsTBU15U1FMMSYwJAYDVQQDEx1NeVNRTCBDUkwgdGVzdCBDQSBjZXJ0aWZpY2F0
ZTAeFw0xMTA2MTcwNzI3NTFaFw0xNjA2MTUwNzI3NTFaMGgxCzAJBgNVBAYTAkJH
MRAwDgYDVQQIEwdQbG92ZGl2MQ8wDQYDVQQKEwZPcmFjbGUxDjAMBgNVBAsTBU15
U1FMMSYwJAYDVQQDEx1NeVNRTCBDUkwgdGVzdCBDQSBjZXJ0aWZpY2F0ZTCBnzAN
BgkqhkiG9w0BAQEFAAOBjQAwgYkCgYEAmwgLlhlX+yF59BbJuCwTLuH+X2sYfdTE
181mpmIOtyixOXZiblpKgPYOjoQ+zy+RDTZti7X5eJbwX4Kistj8s0a1MCSzqHdg
bAXJj4L9rZ8mIylWWwJv8gAxhmC3jFazlaiNqbtrkf1d9WohRYVjeA4PDgNtU3MN
bKpb+fz6/fcCAwEAAaOBzTCByjAdBgNVHQ4EFgQUxB0saD9fKVHsxVRhzhYT0nJd
Y+gwgZoGA1UdIwSBkjCBj4AUxB0saD9fKVHsxVRhzhYT0nJdY+ihbKRqMGgxCzAJ
BgNVBAYTAkJHMRAwDgYDVQQIEwdQbG92ZGl2MQ8wDQYDVQQKEwZPcmFjbGUxDjAM
BgNVBAsTBU15U1FMMSYwJAYDVQQDEx1NeVNRTCBDUkwgdGVzdCBDQSBjZXJ0aWZp
Y2F0ZYIJAKWF7GCxaEQiMAwGA1UdEwQFMAMBAf8wDQYJKoZIhvcNAQEFBQADgYEA
c90udnElwv56xUbK8segQ/DHPCSNpr2N8nzbAxsrisgjru9xJTNbEGHnfYkwqGcl
LuAGMHfauIflkc3Hj8l7PZ6GgEQCa9EGhV0oeMynqDWs93dt4sejN7yf079Kygnc
0HgMWcfbS2fxCW2pelAvHSymuIEO5kvu2b6upWrXVsQ=
-----END CERTIFICATE-----
