Certificate:
    Data:
        Version: 3 (0x2)
        Serial Number:
            f9:e2:f3:98:0e:2b:05:7c
        Signature Algorithm: sha1WithRSAEncryption
        Issuer: C=BG, ST=Plovdiv, O=Oracle, OU=MySQL, CN=MySQL CRL test CA certificate
        Validity
            Not Before: May 17 15:08:00 2012 GMT
            Not After : May 10 15:08:00 2042 GMT
        Subject: C=BG, ST=Plovdiv, O=Oracle, OU=MySQL, CN=MySQL CRL test CA certificate
        Subject Public Key Info:
            Public Key Algorithm: rsaEncryption
            RSA Public Key: (1024 bit)
                Modulus (1024 bit):
                    00:ed:ec:45:e0:22:d7:d0:d5:91:87:74:5f:ee:17:
                    b5:c7:07:c2:4b:b3:e7:13:93:46:95:1f:5d:09:54:
                    14:98:40:3d:0e:e6:14:5c:5e:39:c5:75:87:4e:73:
                    24:62:d9:85:4a:69:c4:35:7d:6b:76:6c:1c:8e:56:
                    a8:fe:9e:fe:22:ae:c9:41:14:67:d4:11:37:8d:d3:
                    18:02:9d:8a:36:64:b1:8b:2f:a0:ba:2d:d5:fd:c0:
                    cd:6a:7d:a5:c0:6b:6b:60:64:2f:24:45:bb:a8:ad:
                    1c:95:a0:d5:40:79:28:5f:b1:17:97:63:a1:d5:1e:
                    42:d4:10:70:5d:8f:2e:34:45
                Exponent: 65537 (0x10001)
        X509v3 extensions:
            X509v3 Subject Key Identifier: 
                85:AB:E6:A7:57:88:7D:8D:BE:EB:64:53:73:94:64:CD:4B:8D:29:12
            X509v3 Authority Key Identifier: 
                keyid:85:AB:E6:A7:57:88:7D:8D:BE:EB:64:53:73:94:64:CD:4B:8D:29:12
                DirName:/C=BG/ST=Plovdiv/O=Oracle/OU=MySQL/CN=MySQL CRL test CA certificate
                serial:F9:E2:F3:98:0E:2B:05:7C

            X509v3 Basic Constraints: 
                CA:TRUE
    Signature Algorithm: sha1WithRSAEncryption
        90:f7:9b:56:14:df:c4:db:46:a4:67:f5:83:68:e9:70:45:4c:
        5d:97:07:06:fd:2c:68:0b:9a:ed:6d:7a:d1:18:be:b8:dd:08:
        bc:ff:10:5b:d9:b2:50:1f:98:b0:5d:be:6d:0b:88:bb:30:93:
        fa:04:34:f1:3b:f6:56:d5:86:bb:1c:31:f3:7f:7b:38:0b:d1:
        f9:fd:87:b5:c4:63:a0:b8:46:59:95:a8:b5:ec:4f:d0:ad:df:
        42:ed:74:4f:2f:fd:7c:65:aa:d7:60:d1:70:55:41:8b:0b:c2:
        3b:f1:f3:2f:6b:a5:d9:48:b1:2d:84:e9:07:63:92:f0:36:04:
        cf:5d
-----BEGIN CERTIFICATE-----
MIIDHDCCAoWgAwIBAgIJAPni85gOKwV8MA0GCSqGSIb3DQEBBQUAMGgxCzAJBgNV
BAYTAkJHMRAwDgYDVQQIEwdQbG92ZGl2MQ8wDQYDVQQKEwZPcmFjbGUxDjAMBgNV
BAsTBU15U1FMMSYwJAYDVQQDEx1NeVNRTCBDUkwgdGVzdCBDQSBjZXJ0aWZpY2F0
ZTAeFw0xMjA1MTcxNTA4MDBaFw00MjA1MTAxNTA4MDBaMGgxCzAJBgNVBAYTAkJH
MRAwDgYDVQQIEwdQbG92ZGl2MQ8wDQYDVQQKEwZPcmFjbGUxDjAMBgNVBAsTBU15
U1FMMSYwJAYDVQQDEx1NeVNRTCBDUkwgdGVzdCBDQSBjZXJ0aWZpY2F0ZTCBnzAN
BgkqhkiG9w0BAQEFAAOBjQAwgYkCgYEA7exF4CLX0NWRh3Rf7he1xwfCS7PnE5NG
lR9dCVQUmEA9DuYUXF45xXWHTnMkYtmFSmnENX1rdmwcjlao/p7+Iq7JQRRn1BE3
jdMYAp2KNmSxiy+gui3V/cDNan2lwGtrYGQvJEW7qK0claDVQHkoX7EXl2Oh1R5C
1BBwXY8uNEUCAwEAAaOBzTCByjAdBgNVHQ4EFgQUhavmp1eIfY2+62RTc5RkzUuN
KRIwgZoGA1UdIwSBkjCBj4AUhavmp1eIfY2+62RTc5RkzUuNKRKhbKRqMGgxCzAJ
BgNVBAYTAkJHMRAwDgYDVQQIEwdQbG92ZGl2MQ8wDQYDVQQKEwZPcmFjbGUxDjAM
BgNVBAsTBU15U1FMMSYwJAYDVQQDEx1NeVNRTCBDUkwgdGVzdCBDQSBjZXJ0aWZp
Y2F0ZYIJAPni85gOKwV8MAwGA1UdEwQFMAMBAf8wDQYJKoZIhvcNAQEFBQADgYEA
kPebVhTfxNtGpGf1g2jpcEVMXZcHBv0saAua7W160Ri+uN0IvP8QW9myUB+YsF2+
bQuIuzCT+gQ08Tv2VtWGuxwx8397OAvR+f2HtcRjoLhGWZWotexP0K3fQu10Ty/9
fGWq12DRcFVBiwvCO/HzL2ul2UixLYTpB2OS8DYEz10=
-----END CERTIFICATE-----
