Certificate:
    Data:
        Version: 1 (0x0)
        Serial Number: 1 (0x1)
    Signature Algorithm: sha1WithRSAEncryption
        Issuer: C=SE, ST=Stockholm, L=Stockholm, O=Oracle, OU=MySQL, CN=CA
        Validity
            Not Before: Mar 30 07:11:43 2015 GMT
            Not After : Feb  5 07:11:43 2025 GMT
        Subject: C=SE, ST=Stockholm, L=Stockholm, O=Oracle, OU=MySQL, CN=Server
        Subject Public Key Info:
            Public Key Algorithm: rsaEncryption
                Public-Key: (8192 bit)
                Modulus:
                    00:cb:27:2b:78:87:51:ee:f3:8e:4f:f8:34:dc:08:
                    72:4a:5b:6d:dd:85:9a:b9:12:47:4f:31:0f:00:78:
                    d6:a3:c8:1f:e4:fa:45:48:af:fc:12:0b:f0:0e:0f:
                    34:d7:c9:2d:cb:db:20:a5:5c:9e:79:ea:56:bb:0f:
                    28:11:8d:1e:a9:21:2e:0d:97:87:db:ac:e8:8d:78:
                    b9:67:c2:d6:2b:b0:3d:92:60:83:7f:05:1a:0c:f3:
                    89:d7:73:46:3b:d4:db:76:0a:4b:d6:59:45:72:55:
                    56:84:06:0c:59:bb:fe:7c:34:78:2f:9a:b3:06:50:
                    96:26:ae:79:d5:28:2f:c2:01:c7:de:73:fc:51:42:
                    7d:9f:3c:f1:88:d8:6c:23:c1:7f:e7:40:62:72:fa:
                    9a:f9:49:b5:af:48:77:5e:7c:64:54:37:5f:1e:17:
                    2e:42:4b:e1:77:4f:2e:38:ef:fc:d1:16:92:4f:18:
                    39:7b:18:9b:a3:76:d0:59:7f:6c:0d:fc:d6:06:8b:
                    e4:dc:0a:11:5b:9b:da:02:d2:72:eb:5e:ae:e8:22:
                    76:40:5e:18:ab:f9:28:09:3a:06:fa:1d:84:a1:50:
                    17:04:5d:e2:c0:41:4e:3f:44:08:07:24:59:a8:6c:
                    4e:e0:f5:32:a6:90:eb:75:80:a0:dd:f3:b7:02:9d:
                    ab:7a:58:03:db:4a:d7:86:9f:9f:7c:45:ea:20:df:
                    25:4a:63:09:0d:12:95:53:d2:03:4a:02:80:62:5e:
                    42:ec:3e:d5:b3:5d:d4:98:7b:22:a1:87:df:13:7f:
                    77:c8:f7:35:db:e8:b9:39:f6:a0:75:83:8e:34:3f:
                    3c:6f:37:3d:00:7d:bc:67:02:b1:76:ae:1e:ce:8b:
                    be:c6:ae:8e:dd:f5:f6:e4:f3:71:58:8d:1e:b9:8d:
                    3d:15:79:a0:34:86:61:fb:f0:ca:14:05:44:c0:96:
                    b2:cc:26:61:4d:61:cb:d5:a4:62:fb:3e:30:04:9a:
                    ba:90:4e:78:2f:c4:25:98:be:56:f6:f9:72:3f:3a:
                    df:24:c0:d0:07:1a:51:94:31:8e:5f:0b:d9:56:5e:
                    f0:b0:59:2a:ee:31:b1:4e:f9:62:df:6a:2e:07:55:
                    31:7c:54:76:31:c7:96:84:9b:91:6d:51:a0:2e:2c:
                    db:3a:9c:78:f3:28:db:90:4d:94:e5:d7:71:da:e4:
                    6b:97:06:a3:9b:ae:09:a4:3d:2b:3c:c8:9d:d5:b9:
                    dd:88:e2:6f:70:7d:b7:b9:e2:e8:97:52:65:ea:96:
                    25:50:c2:41:10:81:3c:2a:fd:05:66:70:e0:61:97:
                    04:fd:b2:97:42:d0:5d:86:69:4d:7e:45:eb:7a:de:
                    68:ba:81:10:08:e8:fe:cd:aa:28:7d:8d:7d:e1:88:
                    62:6b:ae:f0:1e:1b:59:e8:73:2d:62:8c:8b:69:b7:
                    32:d8:ed:53:10:c3:c0:1c:c6:ca:7a:80:48:7f:9e:
                    43:96:8b:e6:44:3b:20:57:86:d0:43:c5:e5:d4:cd:
                    ae:48:34:1a:fe:92:4e:e1:d4:15:5e:e0:32:be:c3:
                    6c:d6:e7:2d:40:b9:3f:30:f8:4f:2f:35:8a:69:9a:
                    6e:58:0f:09:32:a1:e1:cb:10:87:e5:36:80:d6:b1:
                    92:c7:d0:ff:3a:6e:c7:60:c7:05:f7:be:8a:f9:d7:
                    a1:7f:39:32:90:61:59:cf:56:49:94:aa:93:37:75:
                    0a:80:9e:bd:aa:28:25:15:88:8c:4c:41:21:f9:e0:
                    ce:52:3d:79:4a:fe:a5:7f:33:09:0d:6d:d0:2b:26:
                    44:5d:4f:84:88:1a:68:11:04:89:65:f3:89:7f:99:
                    a3:e8:00:bd:11:ac:28:20:7e:2b:c3:a4:7e:8c:97:
                    44:f0:cf:fd:4d:ae:1c:6c:27:08:30:a6:5b:90:b8:
                    97:a0:c0:6e:de:83:cf:1a:63:48:1b:9c:fb:98:51:
                    04:77:86:86:d3:b8:8a:de:31:b9:62:7a:19:be:0a:
                    26:4c:b8:d7:c8:f5:0d:37:2a:c5:c0:25:e0:36:5d:
                    f8:a2:78:05:ca:1b:cb:dd:79:e8:df:83:ff:ff:02:
                    ab:30:c6:2f:4c:ce:7e:00:e4:85:1a:b5:db:40:12:
                    70:e2:24:f2:4c:8c:95:66:20:a4:25:b1:e5:1a:a2:
                    e3:4f:1b:09:9e:8c:02:24:af:ed:a5:97:f6:35:e4:
                    76:85:c8:a3:36:b3:a3:b1:eb:da:94:0b:c9:40:3e:
                    4e:79:04:08:c0:f5:01:a4:5a:91:3b:4a:48:42:c6:
                    37:29:13:f6:22:8a:f7:50:7d:57:c4:72:c3:10:8a:
                    9e:20:d7:96:c1:02:5e:59:00:a5:cf:85:b3:59:93:
                    23:68:5d:a3:cc:a6:8f:6b:c8:16:e5:ba:6d:31:1e:
                    1b:f4:3d:8a:10:3f:87:f8:73:8e:9a:9c:1f:74:18:
                    ab:96:ba:48:7c:25:5c:d5:71:42:48:ff:c5:96:d5:
                    20:94:3f:f2:15:ad:a0:ae:de:7b:93:bb:45:e9:8e:
                    b8:da:10:64:8f:6b:c8:e4:68:6d:85:6d:d6:b1:09:
                    7c:60:7d:dc:5f:ef:6a:f1:ea:c4:ee:28:33:be:45:
                    a1:d0:b3:f9:81:a9:39:e6:ac:c8:17:39:2a:51:3a:
                    b2:52:88:b7:10:38:ad:5d:58:ab:69:5a:6a:4e:f1:
                    1f:13:e3:ce:0d:e8:cb:14:41:72:fd:eb:e7:58:53:
                    5c:6f:c7:d0:1d
                Exponent: 65537 (0x10001)
    Signature Algorithm: sha1WithRSAEncryption
         ac:c4:13:9a:ff:83:5c:31:27:b8:57:eb:20:7b:51:34:e9:91:
         6c:52:14:9d:91:1f:75:bc:e1:08:7c:7f:e0:ff:88:20:06:78:
         8c:84:2a:af:c4:85:9c:63:40:c2:3f:39:10:65:f3:41:a5:22:
         f6:e2:ec:58:ff:cd:ab:60:cb:89:a9:6a:90:26:18:06:b9:85:
         9f:7c:99:f9:cf:6b:93:b7:d4:1d:89:6d:17:90:fa:b3:55:a6:
         d0:9e:4e:51:e4:17:1f:6e:c3:fb:c3:a1:a2:15:35:77:f0:da:
         71:31:61:ee:1f:00:54:8d:2f:24:0a:cc:93:d2:9e:42:23:c6:
         5b:57:cb:39:b6:be:c0:dd:3a:8f:57:1a:10:b3:48:5a:1b:ea:
         e7:7d:16:b2:1e:b5:86:be:c9:b5:8c:e8:a6:62:52:99:f5:86:
         bf:e3:9e:12:32:dd:5a:21:c8:20:dc:58:e5:66:3c:c1:5e:33:
         1b:36:d7:fc:4b:48:08:21:2b:ab:c5:19:62:a4:46:90:55:6c:
         84:7d:20:a9:21:9c:ae:9a:1a:3f:1b:f8:1f:36:42:e3:43:89:
         61:c8:d2:c6:91:5b:75:24:97:ec:72:41:30:80:aa:d2:d1:37:
         60:a8:6c:2c:db:fe:4a:50:6d:8b:d5:da:86:4c:5a:f2:8a:cf:
         fd:21:8a:94
-----BEGIN CERTIFICATE-----
MIIGPjCCBSYCAQEwDQYJKoZIhvcNAQEFBQAwYzELMAkGA1UEBhMCU0UxEjAQBgNV
BAgMCVN0b2NraG9sbTESMBAGA1UEBwwJU3RvY2tob2xtMQ8wDQYDVQQKDAZPcmFj
bGUxDjAMBgNVBAsMBU15U1FMMQswCQYDVQQDDAJDQTAeFw0xNTAzMzAwNzExNDNa
Fw0yNTAyMDUwNzExNDNaMGcxCzAJBgNVBAYTAlNFMRIwEAYDVQQIDAlTdG9ja2hv
bG0xEjAQBgNVBAcMCVN0b2NraG9sbTEPMA0GA1UECgwGT3JhY2xlMQ4wDAYDVQQL
DAVNeVNRTDEPMA0GA1UEAwwGU2VydmVyMIIEIjANBgkqhkiG9w0BAQEFAAOCBA8A
MIIECgKCBAEAyycreIdR7vOOT/g03AhySltt3YWauRJHTzEPAHjWo8gf5PpFSK/8
EgvwDg8018kty9sgpVyeeepWuw8oEY0eqSEuDZeH26zojXi5Z8LWK7A9kmCDfwUa
DPOJ13NGO9TbdgpL1llFclVWhAYMWbv+fDR4L5qzBlCWJq551SgvwgHH3nP8UUJ9
nzzxiNhsI8F/50Bicvqa+Um1r0h3XnxkVDdfHhcuQkvhd08uOO/80RaSTxg5exib
o3bQWX9sDfzWBovk3AoRW5vaAtJy616u6CJ2QF4Yq/koCToG+h2EoVAXBF3iwEFO
P0QIByRZqGxO4PUyppDrdYCg3fO3Ap2relgD20rXhp+ffEXqIN8lSmMJDRKVU9ID
SgKAYl5C7D7Vs13UmHsioYffE393yPc12+i5OfagdYOOND88bzc9AH28ZwKxdq4e
zou+xq6O3fX25PNxWI0euY09FXmgNIZh+/DKFAVEwJayzCZhTWHL1aRi+z4wBJq6
kE54L8QlmL5W9vlyPzrfJMDQBxpRlDGOXwvZVl7wsFkq7jGxTvli32ouB1UxfFR2
MceWhJuRbVGgLizbOpx48yjbkE2U5ddx2uRrlwajm64JpD0rPMid1bndiOJvcH23
ueLol1Jl6pYlUMJBEIE8Kv0FZnDgYZcE/bKXQtBdhmlNfkXret5ouoEQCOj+zaoo
fY194Yhia67wHhtZ6HMtYoyLabcy2O1TEMPAHMbKeoBIf55DlovmRDsgV4bQQ8Xl
1M2uSDQa/pJO4dQVXuAyvsNs1uctQLk/MPhPLzWKaZpuWA8JMqHhyxCH5TaA1rGS
x9D/Om7HYMcF976K+dehfzkykGFZz1ZJlKqTN3UKgJ69qiglFYiMTEEh+eDOUj15
Sv6lfzMJDW3QKyZEXU+EiBpoEQSJZfOJf5mj6AC9EawoIH4rw6R+jJdE8M/9Ta4c
bCcIMKZbkLiXoMBu3oPPGmNIG5z7mFEEd4aG07iK3jG5YnoZvgomTLjXyPUNNyrF
wCXgNl34ongFyhvL3Xno34P//wKrMMYvTM5+AOSFGrXbQBJw4iTyTIyVZiCkJbHl
GqLjTxsJnowCJK/tpZf2NeR2hcijNrOjsevalAvJQD5OeQQIwPUBpFqRO0pIQsY3
KRP2Ior3UH1XxHLDEIqeINeWwQJeWQClz4WzWZMjaF2jzKaPa8gW5bptMR4b9D2K
ED+H+HOOmpwfdBirlrpIfCVc1XFCSP/FltUglD/yFa2grt57k7tF6Y642hBkj2vI
5GhthW3WsQl8YH3cX+9q8erE7igzvkWh0LP5gak55qzIFzkqUTqyUoi3EDitXVir
aVpqTvEfE+PODejLFEFy/evnWFNcb8fQHQIDAQABMA0GCSqGSIb3DQEBBQUAA4IB
AQCsxBOa/4NcMSe4V+sge1E06ZFsUhSdkR91vOEIfH/g/4ggBniMhCqvxIWcY0DC
PzkQZfNBpSL24uxY/82rYMuJqWqQJhgGuYWffJn5z2uTt9QdiW0XkPqzVabQnk5R
5BcfbsP7w6GiFTV38NpxMWHuHwBUjS8kCsyT0p5CI8ZbV8s5tr7A3TqPVxoQs0ha
G+rnfRayHrWGvsm1jOimYlKZ9Ya/454SMt1aIcgg3FjlZjzBXjMbNtf8S0gIISur
xRlipEaQVWyEfSCpIZyumho/G/gfNkLjQ4lhyNLGkVt1JJfsckEwgKrS0TdgqGws
2/5KUG2L1dqGTFryis/9IYqU
-----END CERTIFICATE-----
