Certificate:
    Data:
        Version: 3 (0x2)
        Serial Number: 5 (0x5)
        Signature Algorithm: sha1WithRSAEncryption
        Issuer: C=SE, ST=Uppsala, L=Uppsala, O=MySQL AB
        Validity
            Not Before: Feb 20 03:00:54 2010 GMT
            Not After : Sep  3 03:00:54 2030 GMT
        Subject: C=SE, ST=Uppsala, O=MySQL AB, CN=server
        Subject Public Key Info:
            Public Key Algorithm: rsaEncryption
            RSA Public Key: (1024 bit)
                Modulus (1024 bit):
                    00:c5:da:44:95:06:77:16:21:af:a0:c4:3c:e9:f8:
                    1d:2d:95:f9:63:90:8c:3f:86:ba:77:76:4a:52:4b:
                    6b:af:29:f5:1c:aa:d4:3f:3e:42:9f:6d:46:ba:86:
                    90:b1:2d:cc:db:c6:33:15:a3:f4:af:53:33:4f:a1:
                    56:d1:aa:3b:26:10:f7:64:b5:f9:bf:1b:b1:47:8e:
                    cc:a6:d6:0d:aa:4a:77:e3:a3:63:9d:2a:dc:65:f4:
                    7f:91:17:38:2d:d6:cd:4e:8d:53:52:97:6e:87:fc:
                    64:60:a6:a1:00:ac:96:6c:e4:42:94:75:17:46:6f:
                    91:b5:dd:06:47:ed:05:e3:db
                Exponent: 65537 (0x10001)
        X509v3 extensions:
            X509v3 Basic Constraints: 
                CA:FALSE
            X509v3 Subject Key Identifier: 
                6E:60:3F:29:13:60:99:ED:0C:F7:15:B5:DB:7B:1C:FB:6F:60:19:ED
            X509v3 Authority Key Identifier: 
                keyid:B1:FB:7E:77:B5:40:8D:68:11:7E:D9:11:E5:C3:C6:DA:4D:AC:51:B0
                DirName:/C=SE/ST=Uppsala/L=Uppsala/O=MySQL AB
                serial:BE:58:AD:4C:1F:3D:25:95

    Signature Algorithm: sha1WithRSAEncryption
        63:2e:0f:07:14:06:cf:74:90:3d:37:42:f2:48:70:60:21:bc:
        34:52:31:f1:87:70:d2:b2:fb:ff:13:38:dc:f0:5e:43:d7:ee:
        a7:c7:1f:ac:aa:d2:8c:4f:fa:3c:4c:73:f6:b6:c2:0c:a0:ea:
        a2:c9:e2:73:61:c3:2e:78:40:0f:2a:d3:63:50:9b:b8:f9:89:
        40:ed:98:08:97:c3:07:24:17:34:b5:78:89:0a:bb:83:4c:e2:
        5c:2e:13:d6:21:30:ad:30:48:b5:70:12:ff:4a:6f:42:f0:f8:
        9f:b1:4b:bd:89:2b:f0:9d:e2:49:2b:35:69:18:1f:76:40:b4:
        76:bd:cb:dd:27:2f:c0:c1:e2:33:3e:6e:df:68:54:19:92:8a:
        bb:13:9c:cf:d6:17:56:da:bf:0d:64:70:3a:45:b7:aa:5f:e3:
        f5:96:ae:34:f2:17:37:27:d0:4b:e8:30:4a:c0:02:42:e2:d2:
        30:eb:eb:c7:d7:ec:d8:df:5c:43:58:e2:6f:b7:58:54:0d:c4:
        01:71:2d:59:8f:44:c7:a1:6c:0b:41:28:fa:b7:63:a7:68:d3:
        4f:c3:0f:17:9e:b2:32:50:e6:0b:87:3d:e2:39:47:c0:d8:0a:
        3b:f6:af:50:68:0f:9d:ef:6e:34:0d:3a:07:94:f8:a4:d7:24:
        86:32:d3:b4
-----BEGIN CERTIFICATE-----
MIIDIjCCAgqgAwIBAgIBBTANBgkqhkiG9w0BAQUFADBEMQswCQYDVQQGEwJTRTEQ
MA4GA1UECBMHVXBwc2FsYTEQMA4GA1UEBxMHVXBwc2FsYTERMA8GA1UEChMITXlT
UUwgQUIwHhcNMTAwMjIwMDMwMDU0WhcNMzAwOTAzMDMwMDU0WjBDMQswCQYDVQQG
EwJTRTEQMA4GA1UECBMHVXBwc2FsYTERMA8GA1UEChMITXlTUUwgQUIxDzANBgNV
BAMTBnNlcnZlcjCBnzANBgkqhkiG9w0BAQEFAAOBjQAwgYkCgYEAxdpElQZ3FiGv
oMQ86fgdLZX5Y5CMP4a6d3ZKUktrryn1HKrUPz5Cn21GuoaQsS3M28YzFaP0r1Mz
T6FW0ao7JhD3ZLX5vxuxR47MptYNqkp346NjnSrcZfR/kRc4LdbNTo1TUpduh/xk
YKahAKyWbORClHUXRm+Rtd0GR+0F49sCAwEAAaOBozCBoDAJBgNVHRMEAjAAMB0G
A1UdDgQWBBRuYD8pE2CZ7Qz3FbXbexz7b2AZ7TB0BgNVHSMEbTBrgBSx+353tUCN
aBF+2RHlw8baTaxRsKFIpEYwRDELMAkGA1UEBhMCU0UxEDAOBgNVBAgTB1VwcHNh
bGExEDAOBgNVBAcTB1VwcHNhbGExETAPBgNVBAoTCE15U1FMIEFCggkAvlitTB89
JZUwDQYJKoZIhvcNAQEFBQADggEBAGMuDwcUBs90kD03QvJIcGAhvDRSMfGHcNKy
+/8TONzwXkPX7qfHH6yq0oxP+jxMc/a2wgyg6qLJ4nNhwy54QA8q02NQm7j5iUDt
mAiXwwckFzS1eIkKu4NM4lwuE9YhMK0wSLVwEv9Kb0Lw+J+xS72JK/Cd4kkrNWkY
H3ZAtHa9y90nL8DB4jM+bt9oVBmSirsTnM/WF1bavw1kcDpFt6pf4/WWrjTyFzcn
0EvoMErAAkLi0jDr68fX7NjfXENY4m+3WFQNxAFxLVmPRMehbAtBKPq3Y6do00/D
DxeesjJQ5guHPeI5R8DYCjv2r1BoD53vbjQNOgeU+KTXJIYy07Q=
-----END CERTIFICATE-----
