Certificate:
    Data:
        Version: 1 (0x0)
        Serial Number: 1 (0x1)
    Signature Algorithm: sha1WithRSAEncryption
        Issuer: C=SE, ST=Stockholm, L=Stockholm, O=Oracle, OU=MySQL, CN=CA
        Validity
            Not Before: Mar 27 13:57:20 2015 GMT
            Not After : Feb  2 13:57:20 2025 GMT
        Subject: C=SE, ST=Stockholm, L=Stockholm, O=Oracle, OU=MySQL, CN=localhost
        Subject Public Key Info:
            Public Key Algorithm: rsaEncryption
                Public-Key: (2048 bit)
                Modulus:
                    00:f0:b9:fc:2f:f1:39:66:9c:4a:cd:04:95:80:67:
                    48:03:6b:af:04:51:a6:80:94:13:ff:24:98:e6:38:
                    5a:37:da:70:26:1a:32:d2:0f:65:3f:79:82:a1:ad:
                    f8:79:02:e1:35:bc:2e:51:c5:f1:e6:21:5b:9f:74:
                    67:5a:54:e2:f9:3f:8c:cd:67:ae:f4:d3:ba:13:24:
                    7f:8b:45:09:df:25:a5:c1:31:e8:d4:a2:07:f3:3c:
                    9c:9e:cb:fd:a4:1a:d2:ed:9f:de:c7:1e:e8:0b:d9:
                    42:15:52:96:f8:1d:ca:bd:ab:92:e7:7c:15:23:af:
                    82:2e:dd:d3:e6:66:96:6e:89:75:01:51:d8:28:73:
                    cb:9e:a1:25:2e:f1:fe:b4:d4:87:61:5e:96:14:22:
                    05:6a:22:1d:02:30:e9:27:5d:85:a8:23:e2:88:52:
                    e8:3d:5a:7f:16:53:b9:7c:d9:58:bc:fb:fd:2a:2c:
                    7c:68:0b:c2:3a:2e:0c:27:81:41:ce:66:cd:36:ac:
                    11:2a:fb:cc:e1:a4:d4:1f:4e:0a:e5:7b:26:ef:4e:
                    21:cd:ab:59:79:50:06:bb:54:a6:b1:37:1f:bd:87:
                    5c:ab:eb:50:c0:b7:b9:60:a8:ce:1c:24:a1:47:51:
                    e9:1a:fa:72:1e:53:fe:ad:68:3b:a7:29:58:96:bb:
                    24:1d
                Exponent: 65537 (0x10001)
    Signature Algorithm: sha1WithRSAEncryption
         95:6f:51:cb:fe:5e:c5:bc:49:49:4f:c8:e9:db:35:80:34:b2:
         9c:e1:66:63:7b:48:19:b6:14:53:7d:fd:e4:80:f9:63:cd:a6:
         75:77:c4:80:6c:6b:8e:25:6f:be:d1:d1:1c:4b:6b:6e:3d:e2:
         db:99:f5:0e:a9:df:59:1d:f9:9a:06:70:52:19:e8:b2:5f:95:
         3c:e3:75:f8:0c:1e:58:d5:ba:c0:99:9f:b1:ac:b8:74:8e:fd:
         95:85:0b:2d:29:e7:70:32:d8:b2:b8:e4:47:cd:b6:59:78:85:
         e1:f0:ab:89:3e:c5:82:f2:b1:6e:e5:0f:90:3e:6e:9d:62:53:
         b2:77:7e:54:62:fd:a5:0a:29:3c:65:3c:43:0c:49:95:a4:61:
         ef:55:79:f3:72:0b:5d:0d:1f:a0:ac:04:4c:f5:38:34:6c:c3:
         9e:e4:e5:ef:56:01:29:b1:96:fe:fe:a1:9c:ea:88:84:ff:1f:
         26:d0:38:59:65:cf:33:86:11:10:51:5c:19:ef:c6:2a:39:91:
         5e:4c:d2:8c:30:cb:1f:07:f7:c5:c7:dc:1d:4b:4c:6e:c7:74:
         63:2f:a0:de:bf:13:b6:6b:bd:07:3e:60:62:5f:37:ed:f5:69:
         4a:4d:b1:80:02:1d:dc:b7:8a:b8:ba:14:f6:da:86:08:69:af:
         9f:d9:d8:1a
-----BEGIN CERTIFICATE-----
MIIDQTCCAikCAQEwDQYJKoZIhvcNAQEFBQAwYzELMAkGA1UEBhMCU0UxEjAQBgNV
BAgMCVN0b2NraG9sbTESMBAGA1UEBwwJU3RvY2tob2xtMQ8wDQYDVQQKDAZPcmFj
bGUxDjAMBgNVBAsMBU15U1FMMQswCQYDVQQDDAJDQTAeFw0xNTAzMjcxMzU3MjBa
Fw0yNTAyMDIxMzU3MjBaMGoxCzAJBgNVBAYTAlNFMRIwEAYDVQQIDAlTdG9ja2hv
bG0xEjAQBgNVBAcMCVN0b2NraG9sbTEPMA0GA1UECgwGT3JhY2xlMQ4wDAYDVQQL
DAVNeVNRTDESMBAGA1UEAwwJbG9jYWxob3N0MIIBIjANBgkqhkiG9w0BAQEFAAOC
AQ8AMIIBCgKCAQEA8Ln8L/E5ZpxKzQSVgGdIA2uvBFGmgJQT/ySY5jhaN9pwJhoy
0g9lP3mCoa34eQLhNbwuUcXx5iFbn3RnWlTi+T+MzWeu9NO6EyR/i0UJ3yWlwTHo
1KIH8zycnsv9pBrS7Z/exx7oC9lCFVKW+B3KvauS53wVI6+CLt3T5maWbol1AVHY
KHPLnqElLvH+tNSHYV6WFCIFaiIdAjDpJ12FqCPiiFLoPVp/FlO5fNlYvPv9Kix8
aAvCOi4MJ4FBzmbNNqwRKvvM4aTUH04K5Xsm704hzatZeVAGu1SmsTcfvYdcq+tQ
wLe5YKjOHCShR1HpGvpyHlP+rWg7pylYlrskHQIDAQABMA0GCSqGSIb3DQEBBQUA
A4IBAQCVb1HL/l7FvElJT8jp2zWANLKc4WZje0gZthRTff3kgPljzaZ1d8SAbGuO
JW++0dEcS2tuPeLbmfUOqd9ZHfmaBnBSGeiyX5U843X4DB5Y1brAmZ+xrLh0jv2V
hQstKedwMtiyuORHzbZZeIXh8KuJPsWC8rFu5Q+QPm6dYlOyd35UYv2lCik8ZTxD
DEmVpGHvVXnzcgtdDR+grARM9Tg0bMOe5OXvVgEpsZb+/qGc6oiE/x8m0DhZZc8z
hhEQUVwZ78YqOZFeTNKMMMsfB/fFx9wdS0xux3RjL6DevxO2a70HPmBiXzft9WlK
TbGAAh3ct4q4uhT22oYIaa+f2dga
-----END CERTIFICATE-----
