Certificate:
    Data:
        Version: 3 (0x2)
        Serial Number: 4 (0x4)
        Signature Algorithm: sha1WithRSAEncryption
        Issuer: C=SE, ST=Uppsala, L=Uppsala, O=MySQL AB
        Validity
            Not Before: Feb 20 02:55:06 2010 GMT
            Not After : Sep  3 02:55:06 2030 GMT
        Subject: C=SE, ST=Uppsala, O=MySQL AB, CN=localhost
        Subject Public Key Info:
            Public Key Algorithm: rsaEncryption
            RSA Public Key: (1024 bit)
                Modulus (1024 bit):
                    00:e3:7d:4f:c2:23:77:a9:3a:2c:d2:69:59:a0:2f:
                    4e:d1:51:4c:ae:8d:f5:17:cc:ce:58:9c:83:4f:0b:
                    a3:bb:29:a2:b8:1d:3e:1b:04:f9:a9:3e:e2:61:d0:
                    e6:7b:b9:7c:12:d8:1f:86:c9:53:b5:04:dd:df:26:
                    e9:c0:2b:de:4a:96:2e:f3:23:6f:79:6d:a9:d2:4e:
                    17:af:2f:de:8b:68:44:ae:de:a3:e2:c4:37:1c:04:
                    ad:73:4b:85:f9:83:ac:fe:b7:c1:54:47:2e:96:d4:
                    31:96:85:94:69:d6:5a:63:24:04:99:89:19:1d:56:
                    8a:d1:77:aa:87:fb:38:cd:b7
                Exponent: 65537 (0x10001)
        X509v3 extensions:
            X509v3 Basic Constraints: 
                CA:FALSE
            X509v3 Subject Key Identifier: 
                CC:8C:71:40:D0:0F:BF:D1:99:79:3F:1B:E9:10:76:19:67:36:0F:A3
            X509v3 Authority Key Identifier: 
                keyid:B1:FB:7E:77:B5:40:8D:68:11:7E:D9:11:E5:C3:C6:DA:4D:AC:51:B0
                DirName:/C=SE/ST=Uppsala/L=Uppsala/O=MySQL AB
                serial:BE:58:AD:4C:1F:3D:25:95

    Signature Algorithm: sha1WithRSAEncryption
        6f:ad:5e:59:fa:84:3a:be:e2:72:b1:e8:66:2a:4e:f8:73:19:
        11:06:11:92:78:56:3e:d6:e8:68:29:90:8b:59:d2:fe:aa:ae:
        25:59:c7:e9:99:bb:4a:06:43:dd:40:bd:cb:f4:ae:79:95:7d:
        8e:90:ef:58:d2:a8:fc:bf:07:f3:37:b2:9b:bd:da:e6:8c:56:
        dd:5e:c6:4a:70:7c:3e:3d:a1:e8:35:06:b8:a7:7b:ac:26:85:
        54:5d:09:a2:7b:77:b4:17:7f:72:31:cb:ff:cc:67:6d:e6:3e:
        c6:dc:96:eb:4a:0a:ae:e9:48:ae:8a:e0:d6:73:57:6e:32:4c:
        00:dc:28:da:55:b3:9f:9f:d8:98:cc:d9:f1:b6:b3:14:67:2e:
        a1:47:1e:51:11:cf:70:9f:31:8f:ba:59:29:f2:d0:88:0b:e2:
        51:6b:f8:31:ed:6d:ac:00:5e:d3:78:4c:95:97:02:cc:74:2b:
        3b:c6:28:e6:2a:c3:30:99:35:b4:4d:31:46:d4:90:f2:47:ed:
        64:85:1a:75:2a:72:0a:2f:c6:3a:2f:d2:ac:6b:31:cc:e5:a8:
        07:c2:d6:22:f3:c6:0f:bf:67:d9:d6:b2:79:cd:48:b5:c3:e0:
        e3:18:7f:b5:74:c9:43:19:fb:c4:93:29:ca:cc:90:2b:1b:6f:
        45:f6:25:f9
-----BEGIN CERTIFICATE-----
MIIDJTCCAg2gAwIBAgIBBDANBgkqhkiG9w0BAQUFADBEMQswCQYDVQQGEwJTRTEQ
MA4GA1UECBMHVXBwc2FsYTEQMA4GA1UEBxMHVXBwc2FsYTERMA8GA1UEChMITXlT
UUwgQUIwHhcNMTAwMjIwMDI1NTA2WhcNMzAwOTAzMDI1NTA2WjBGMQswCQYDVQQG
EwJTRTEQMA4GA1UECBMHVXBwc2FsYTERMA8GA1UEChMITXlTUUwgQUIxEjAQBgNV
BAMTCWxvY2FsaG9zdDCBnzANBgkqhkiG9w0BAQEFAAOBjQAwgYkCgYEA431PwiN3
qTos0mlZoC9O0VFMro31F8zOWJyDTwujuymiuB0+GwT5qT7iYdDme7l8EtgfhslT
tQTd3ybpwCveSpYu8yNveW2p0k4Xry/ei2hErt6j4sQ3HAStc0uF+YOs/rfBVEcu
ltQxloWUadZaYyQEmYkZHVaK0Xeqh/s4zbcCAwEAAaOBozCBoDAJBgNVHRMEAjAA
MB0GA1UdDgQWBBTMjHFA0A+/0Zl5PxvpEHYZZzYPozB0BgNVHSMEbTBrgBSx+353
tUCNaBF+2RHlw8baTaxRsKFIpEYwRDELMAkGA1UEBhMCU0UxEDAOBgNVBAgTB1Vw
cHNhbGExEDAOBgNVBAcTB1VwcHNhbGExETAPBgNVBAoTCE15U1FMIEFCggkAvlit
TB89JZUwDQYJKoZIhvcNAQEFBQADggEBAG+tXln6hDq+4nKx6GYqTvhzGREGEZJ4
Vj7W6GgpkItZ0v6qriVZx+mZu0oGQ91Avcv0rnmVfY6Q71jSqPy/B/M3spu92uaM
Vt1exkpwfD49oeg1Brine6wmhVRdCaJ7d7QXf3Ixy//MZ23mPsbclutKCq7pSK6K
4NZzV24yTADcKNpVs5+f2JjM2fG2sxRnLqFHHlERz3CfMY+6WSny0IgL4lFr+DHt
bawAXtN4TJWXAsx0KzvGKOYqwzCZNbRNMUbUkPJH7WSFGnUqcgovxjov0qxrMczl
qAfC1iLzxg+/Z9nWsnnNSLXD4OMYf7V0yUMZ+8STKcrMkCsbb0X2Jfk=
-----END CERTIFICATE-----
