Certificate:
    Data:
        Version: 3 (0x2)
        Serial Number:
            a9:86:f7:15:12:8e:ad:5d
        Signature Algorithm: sha1WithRSAEncryption
        Issuer: C=SE, ST=Uppsala, O=MySQL AB, CN=localhost/emailAddress=abstract.mysql.developer@mysql.com
        Validity
            Not Before: Jan 26 22:31:45 2010 GMT
            Not After : Jan 26 22:31:45 2011 GMT
        Subject: C=SE, ST=Uppsala, O=MySQL AB, CN=localhost/emailAddress=abstract.mysql.developer@mysql.com
        Subject Public Key Info:
            Public Key Algorithm: rsaEncryption
            RSA Public Key: (512 bit)
                Modulus (512 bit):
                    00:b6:8f:e5:b7:b4:86:83:13:8a:f9:bf:63:cb:64:
                    2d:b9:51:d1:de:ab:7b:45:1f:aa:b5:66:73:13:f9:
                    a6:07:d5:ba:7c:fa:92:bd:37:e2:ad:87:db:3e:b6:
                    6a:12:64:f8:ee:17:e3:15:06:2f:a8:82:68:bf:57:
                    8d:c3:04:98:27
                Exponent: 65537 (0x10001)
        X509v3 extensions:
            X509v3 Subject Key Identifier: 
                D9:9A:B8:5F:22:EA:04:10:C8:25:7D:82:57:E6:2E:FD:19:29:E7:DA
            X509v3 Authority Key Identifier: 
                keyid:D9:9A:B8:5F:22:EA:04:10:C8:25:7D:82:57:E6:2E:FD:19:29:E7:DA
                DirName:/C=SE/ST=Uppsala/O=MySQL AB/CN=localhost/emailAddress=abstract.mysql.developer@mysql.com
                serial:A9:86:F7:15:12:8E:AD:5D

            X509v3 Basic Constraints: 
                CA:TRUE
    Signature Algorithm: sha1WithRSAEncryption
        58:b5:de:24:8e:29:82:b1:57:23:c4:b4:1b:8c:a7:81:89:21:
        12:a4:a3:06:b8:ca:88:20:ad:53:27:fc:91:36:f3:f0:82:c6:
        ca:05:49:03:44:90:51:54:f0:6f:94:0e:b5:05:31:b0:7e:61:
        fb:ab:8b:02:5f:f8:f3:7e:28:9c
-----BEGIN CERTIFICATE-----
MIICyjCCAnSgAwIBAgIJAKmG9xUSjq1dMA0GCSqGSIb3DQEBBQUAMHkxCzAJBgNV
BAYTAlNFMRAwDgYDVQQIEwdVcHBzYWxhMREwDwYDVQQKEwhNeVNRTCBBQjESMBAG
A1UEAxMJbG9jYWxob3N0MTEwLwYJKoZIhvcNAQkBFiJhYnN0cmFjdC5teXNxbC5k
ZXZlbG9wZXJAbXlzcWwuY29tMB4XDTEwMDEyNjIyMzE0NVoXDTExMDEyNjIyMzE0
NVoweTELMAkGA1UEBhMCU0UxEDAOBgNVBAgTB1VwcHNhbGExETAPBgNVBAoTCE15
U1FMIEFCMRIwEAYDVQQDEwlsb2NhbGhvc3QxMTAvBgkqhkiG9w0BCQEWImFic3Ry
YWN0Lm15c3FsLmRldmVsb3BlckBteXNxbC5jb20wXDANBgkqhkiG9w0BAQEFAANL
ADBIAkEAto/lt7SGgxOK+b9jy2QtuVHR3qt7RR+qtWZzE/mmB9W6fPqSvTfirYfb
PrZqEmT47hfjFQYvqIJov1eNwwSYJwIDAQABo4HeMIHbMB0GA1UdDgQWBBTZmrhf
IuoEEMglfYJX5i79GSnn2jCBqwYDVR0jBIGjMIGggBTZmrhfIuoEEMglfYJX5i79
GSnn2qF9pHsweTELMAkGA1UEBhMCU0UxEDAOBgNVBAgTB1VwcHNhbGExETAPBgNV
BAoTCE15U1FMIEFCMRIwEAYDVQQDEwlsb2NhbGhvc3QxMTAvBgkqhkiG9w0BCQEW
ImFic3RyYWN0Lm15c3FsLmRldmVsb3BlckBteXNxbC5jb22CCQCphvcVEo6tXTAM
BgNVHRMEBTADAQH/MA0GCSqGSIb3DQEBBQUAA0EAWLXeJI4pgrFXI8S0G4yngYkh
EqSjBrjKiCCtUyf8kTbz8ILGygVJA0SQUVTwb5QOtQUxsH5h+6uLAl/4834onA==
-----END CERTIFICATE-----
