Certificate:
    Data:
        Version: 1 (0x0)
        Serial Number: 1048578 (0x100002)
        Signature Algorithm: md5WithRSAEncryption
        Issuer: C=SE, ST=Uppsala, L=Uppsala, O=MySQL AB
        Validity
            Not Before: Jan 29 11:56:49 2010 GMT
            Not After : Jan 28 11:56:49 2015 GMT
        Subject: C=SE, ST=Uppsala, O=MySQL AB, CN=localhost
        Subject Public Key Info:
            Public Key Algorithm: rsaEncryption
                Public-Key: (512 bit)
                Modulus:
                    00:cd:e4:87:51:9d:72:11:a0:d1:fa:f3:92:8b:13:
                    1c:eb:f7:e2:9a:2f:72:a8:d6:65:48:d1:69:af:1b:
                    c0:4c:13:e5:60:60:51:41:e9:ab:a6:bc:13:bb:0c:
                    5e:32:7c:d9:6c:9e:cd:05:24:84:78:db:80:91:2e:
                    d8:88:2b:c2:ed
                Exponent: 65537 (0x10001)
    Signature Algorithm: md5WithRSAEncryption
        73:ce:9c:6e:39:46:b4:14:be:da:3f:f3:1b:ba:90:bc:23:43:
        d7:82:2a:70:4e:a6:d9:5a:65:5c:b7:df:71:df:75:77:c5:80:
        a4:af:fa:d2:59:e2:fd:c9:9c:f0:98:95:8e:69:a9:8c:7c:d8:
        6f:48:d2:e3:36:e0:cd:ff:3f:d1:a5:e6:ab:75:09:c4:50:10:
        c4:96:dd:bf:3b:de:32:46:da:ca:4a:f1:d6:52:8a:33:2f:ab:
        f5:2e:70:3f:d4:9c:be:00:c8:03:f9:39:8a:df:5b:70:3c:40:
        ef:03:be:7c:3d:1d:32:32:f3:51:81:e2:83:30:6e:3d:38:9b:
        fb:3c
-----BEGIN CERTIFICATE-----
MIIBtzCCASACAxAAAjANBgkqhkiG9w0BAQQFADBEMQswCQYDVQQGEwJTRTEQMA4G
A1UECBMHVXBwc2FsYTEQMA4GA1UEBxMHVXBwc2FsYTERMA8GA1UEChMITXlTUUwg
QUIwHhcNMTAwMTI5MTE1NjQ5WhcNMTUwMTI4MTE1NjQ5WjBGMQswCQYDVQQGEwJT
RTEQMA4GA1UECBMHVXBwc2FsYTERMA8GA1UEChMITXlTUUwgQUIxEjAQBgNVBAMT
CWxvY2FsaG9zdDBcMA0GCSqGSIb3DQEBAQUAA0sAMEgCQQDN5IdRnXIRoNH685KL
Exzr9+KaL3Ko1mVI0WmvG8BME+VgYFFB6aumvBO7DF4yfNlsns0FJIR424CRLtiI
K8LtAgMBAAEwDQYJKoZIhvcNAQEEBQADgYEAc86cbjlGtBS+2j/zG7qQvCND14Iq
cE6m2VplXLffcd91d8WApK/60lni/cmc8JiVjmmpjHzYb0jS4zbgzf8/0aXmq3UJ
xFAQxJbdvzveMkbaykrx1lKKMy+r9S5wP9ScvgDIA/k5it9bcDxA7wO+fD0dMjLz
UYHigzBuPTib+zw=
-----END CERTIFICATE-----
