Certificate:
    Data:
        Version: 3 (0x2)
        Serial Number: 4 (0x4)
        Signature Algorithm: sha1WithRSAEncryption
        Issuer: C=SE, ST=Uppsala, L=Uppsala, O=MySQL AB
        Validity
            Not Before: Jan 28 11:12:27 2009 GMT
            Not After : Jan 28 11:12:27 2010 GMT
        Subject: C=SE, ST=Uppsala, O=MySQL AB, CN=server
        Subject Public Key Info:
            Public Key Algorithm: rsaEncryption
            RSA Public Key: (8192 bit)
                Modulus (8192 bit):
                    00:c0:8f:22:03:24:59:67:46:14:d6:8f:60:09:58:
                    06:07:45:f1:78:71:55:f1:ea:b9:30:8a:cd:c3:3c:
                    b9:bf:65:6e:18:ed:a0:b8:c9:19:56:6f:c4:90:19:
                    c8:65:09:db:ff:bf:82:a1:08:ad:01:4f:5a:a3:d4:
                    3d:78:7e:4b:4a:01:a4:7d:e8:7b:05:3e:7d:d8:b9:
                    55:58:60:d6:1c:ce:e8:32:62:2c:19:60:f3:ed:05:
                    99:6d:c9:77:07:2e:11:6d:0b:9a:c7:68:38:46:e8:
                    fa:31:80:df:e8:79:f0:f1:fd:a9:94:c3:fa:0d:f5:
                    78:ac:49:7e:d5:17:fd:e1:ee:44:f3:c7:0e:30:32:
                    5d:a9:19:25:e4:bb:21:1d:fe:3c:84:48:40:f5:58:
                    f4:bf:13:8c:85:68:bb:ec:f5:dd:c6:38:d1:b0:77:
                    1f:a6:8e:4f:8d:e2:6f:49:74:f5:3f:90:65:8e:99:
                    1e:59:9c:1c:b5:26:24:c4:b1:de:1e:fb:96:65:c4:
                    31:14:1a:53:b8:5e:62:8a:c7:04:f7:b4:36:a4:af:
                    07:c8:27:06:ed:dd:e6:f4:8c:62:f1:65:40:d0:9f:
                    9f:a9:14:c8:8e:8b:74:d6:67:5a:d0:c9:4d:35:a1:
                    d5:7b:39:3a:42:9f:e4:d0:f4:c6:0f:2e:42:30:4b:
                    56:b2:3d:6d:8e:2d:58:c5:69:99:35:49:95:95:99:
                    b6:87:29:2b:32:d1:50:08:cd:25:14:48:6d:10:99:
                    85:61:3c:41:26:21:55:cc:1f:cf:ad:b0:2f:b9:89:
                    d8:4e:a0:18:ff:75:1d:b6:97:7c:c5:fa:8b:dc:93:
                    17:86:0a:64:d4:09:35:d5:83:34:6d:5c:6d:c6:8c:
                    cd:b9:ec:c2:93:c6:c1:b7:cc:04:6f:22:e0:07:bf:
                    e0:d9:9b:2f:d5:a0:50:cc:f9:f0:95:83:8f:f4:30:
                    83:72:94:d7:b5:4b:da:cc:9f:54:3b:8d:78:77:0b:
                    24:6c:0f:c2:96:61:96:2f:b8:5f:b5:7a:ab:7a:5b:
                    97:7a:a9:ad:40:8b:f2:d6:c6:8d:81:d9:94:61:8f:
                    9d:03:c5:b9:10:03:68:83:bf:04:81:cc:ac:bd:34:
                    89:e8:d4:8d:43:20:e2:b6:a4:11:3d:15:2a:82:0c:
                    d6:3a:6a:8c:62:d4:93:bc:c3:80:bf:1b:b4:2b:0a:
                    7a:34:f0:cd:1e:82:3f:25:0f:d1:04:a8:0a:05:19:
                    b0:d6:16:83:39:af:0b:45:7d:cb:14:7e:4d:aa:aa:
                    c2:39:a8:46:38:ab:bd:ab:2a:bd:34:43:7f:da:25:
                    de:2b:fb:69:3b:fe:3b:87:fd:98:94:76:4a:bf:04:
                    a3:31:e3:3a:ff:6f:04:fa:fa:24:e4:2a:89:e9:0e:
                    bf:44:4c:72:85:82:3c:89:4a:03:63:01:41:92:53:
                    d0:82:60:6e:d8:ff:8c:a2:b4:1a:3b:20:6d:ae:74:
                    92:30:4e:48:e3:51:a6:cb:73:97:06:13:03:32:23:
                    9b:7d:a2:c7:3a:a9:af:97:8c:51:ed:fe:fa:b4:b4:
                    1a:a3:87:fc:cf:8c:8e:e6:80:15:03:fd:fe:7d:bd:
                    b1:76:f1:5f:b3:09:2b:4c:4d:a7:7c:b5:72:b1:d6:
                    db:38:c0:67:a4:54:bc:87:09:a5:39:ba:1a:7e:3f:
                    74:60:ad:3d:4b:be:94:53:f3:64:16:c7:33:35:ec:
                    41:00:95:b6:de:99:62:a2:7a:28:9a:45:4d:fa:cd:
                    a6:77:f6:de:58:72:50:c8:7d:69:38:db:07:04:84:
                    d8:4d:39:f7:50:13:43:ae:2d:af:45:a4:2a:39:56:
                    3c:b8:b7:d8:26:a4:36:c9:23:aa:aa:b8:49:0b:21:
                    ba:9e:7a:2b:7f:4d:29:9f:0e:00:1e:b4:5e:a6:fa:
                    49:fe:8d:e5:74:57:d8:ba:d9:92:2c:d2:ac:84:1d:
                    f2:a6:a4:44:1c:bf:88:41:32:7e:d1:c3:2f:6e:bc:
                    0f:5d:19:a6:8f:74:2b:67:ba:dd:a9:db:68:b5:ce:
                    9d:25:48:df:54:08:d0:1d:4f:2e:5b:24:bc:05:0f:
                    fb:58:46:fa:02:ca:53:93:29:cf:10:27:c2:a0:18:
                    d0:f5:d4:b9:3c:5e:df:8e:6c:f5:7c:b9:b4:54:cc:
                    39:16:5d:3c:da:96:b3:c3:6c:d4:70:5d:d3:30:a7:
                    a6:bd:6f:dd:41:bc:a8:de:42:60:59:9a:85:25:0d:
                    2a:45:c3:05:b4:6e:7a:4a:4d:ca:8c:0a:e5:6c:34:
                    bc:20:9b:6d:4a:ca:ca:b6:a6:3a:a0:db:c3:0e:20:
                    1a:12:1b:77:dd:cb:1d:7f:c3:0d:0d:e7:c1:fd:96:
                    d2:c7:68:80:99:a0:d9:8a:33:21:a3:8b:a2:5a:a7:
                    7e:27:06:02:7f:ed:60:11:37:34:54:17:7f:4d:90:
                    14:1e:69:37:0d:ba:f0:2b:f0:a3:2d:62:79:c8:76:
                    a8:ea:c8:e7:3b:1f:c6:4f:c2:0c:d7:ac:f0:77:53:
                    5d:f0:50:b4:df:9b:03:ca:4d:41:e1:18:b2:25:30:
                    86:1d:63:e5:67:b1:53:cd:6b:4e:83:1a:b9:5e:2d:
                    05:15:6b:d4:8e:b1:97:fc:31:03:57:cb:bf:27:7f:
                    cd:5f:27:7e:66:e7:3c:17:09:b6:11:2a:4f:33:cd:
                    eb:1a:d3:6f:d5:15:8b:8b:ce:68:6b:7e:9a:95:e5:
                    74:7f:17:57:d9
                Exponent: 65537 (0x10001)
        X509v3 extensions:
            X509v3 Basic Constraints: 
                CA:FALSE
            X509v3 Subject Key Identifier: 
                58:12:24:59:A7:3C:29:15:89:5A:C2:12:DB:E7:A5:42:10:21:B7:BA
            X509v3 Authority Key Identifier: 
                keyid:F2:E2:EA:55:65:A4:9A:E2:AC:9D:97:F5:45:6C:F6:F7:8C:11:AD:DF
                DirName:/C=SE/ST=Uppsala/L=Uppsala/O=MySQL AB
                serial:95:E9:78:F5:34:50:E4:D5

    Signature Algorithm: sha1WithRSAEncryption
        cd:cb:5c:83:35:ea:cb:cb:c3:a8:c3:95:e2:e6:6f:4d:d8:e4:
        ee:41:dd:3f:35:82:ac:2f:fd:63:89:4f:3a:19:d7:81:75:b3:
        a3:fc:36:b2:12:d5:c6:56:bc:13:60:37:33:6e:a0:d8:ae:7c:
        88:f9:4b:ee:7b:1f:c8:f0:56:19:07:4d:bb:45:52:1c:78:81:
        07:7c:13:86:b8:86:70:85:e4:71:25:58:78:d1:be:de:22:82:
        6d:1a:4b:06:ac:f0:e8:50:87:c7:69:64:c2:61:43:cd:96:06:
        a6:7e:09:a9:02:01:2a:a2:40:f3:cd:10:80:48:d0:34:55:40:
        b9:ce
-----BEGIN CERTIFICATE-----
MIIGJTCCBY6gAwIBAgIBBDANBgkqhkiG9w0BAQUFADBEMQswCQYDVQQGEwJTRTEQ
MA4GA1UECBMHVXBwc2FsYTEQMA4GA1UEBxMHVXBwc2FsYTERMA8GA1UEChMITXlT
UUwgQUIwHhcNMDkwMTI4MTExMjI3WhcNMTAwMTI4MTExMjI3WjBDMQswCQYDVQQG
EwJTRTEQMA4GA1UECBMHVXBwc2FsYTERMA8GA1UEChMITXlTUUwgQUIxDzANBgNV
BAMTBnNlcnZlcjCCBCIwDQYJKoZIhvcNAQEBBQADggQPADCCBAoCggQBAMCPIgMk
WWdGFNaPYAlYBgdF8XhxVfHquTCKzcM8ub9lbhjtoLjJGVZvxJAZyGUJ2/+/gqEI
rQFPWqPUPXh+S0oBpH3oewU+fdi5VVhg1hzO6DJiLBlg8+0FmW3JdwcuEW0Lmsdo
OEbo+jGA3+h58PH9qZTD+g31eKxJftUX/eHuRPPHDjAyXakZJeS7IR3+PIRIQPVY
9L8TjIVou+z13cY40bB3H6aOT43ib0l09T+QZY6ZHlmcHLUmJMSx3h77lmXEMRQa
U7heYorHBPe0NqSvB8gnBu3d5vSMYvFlQNCfn6kUyI6LdNZnWtDJTTWh1Xs5OkKf
5ND0xg8uQjBLVrI9bY4tWMVpmTVJlZWZtocpKzLRUAjNJRRIbRCZhWE8QSYhVcwf
z62wL7mJ2E6gGP91HbaXfMX6i9yTF4YKZNQJNdWDNG1cbcaMzbnswpPGwbfMBG8i
4Ae/4NmbL9WgUMz58JWDj/Qwg3KU17VL2syfVDuNeHcLJGwPwpZhli+4X7V6q3pb
l3qprUCL8tbGjYHZlGGPnQPFuRADaIO/BIHMrL00iejUjUMg4rakET0VKoIM1jpq
jGLUk7zDgL8btCsKejTwzR6CPyUP0QSoCgUZsNYWgzmvC0V9yxR+TaqqwjmoRjir
vasqvTRDf9ol3iv7aTv+O4f9mJR2Sr8EozHjOv9vBPr6JOQqiekOv0RMcoWCPIlK
A2MBQZJT0IJgbtj/jKK0Gjsgba50kjBOSONRpstzlwYTAzIjm32ixzqpr5eMUe3+
+rS0GqOH/M+MjuaAFQP9/n29sXbxX7MJK0xNp3y1crHW2zjAZ6RUvIcJpTm6Gn4/
dGCtPUu+lFPzZBbHMzXsQQCVtt6ZYqJ6KJpFTfrNpnf23lhyUMh9aTjbBwSE2E05
91ATQ64tr0WkKjlWPLi32CakNskjqqq4SQshup56K39NKZ8OAB60Xqb6Sf6N5XRX
2LrZkizSrIQd8qakRBy/iEEyftHDL268D10Zpo90K2e63anbaLXOnSVI31QI0B1P
LlskvAUP+1hG+gLKU5MpzxAnwqAY0PXUuTxe345s9Xy5tFTMORZdPNqWs8Ns1HBd
0zCnpr1v3UG8qN5CYFmahSUNKkXDBbRuekpNyowK5Ww0vCCbbUrKyramOqDbww4g
GhIbd93LHX/DDQ3nwf2W0sdogJmg2YozIaOLolqnficGAn/tYBE3NFQXf02QFB5p
Nw268Cvwoy1iech2qOrI5zsfxk/CDNes8HdTXfBQtN+bA8pNQeEYsiUwhh1j5Wex
U81rToMauV4tBRVr1I6xl/wxA1fLvyd/zV8nfmbnPBcJthEqTzPN6xrTb9UVi4vO
aGt+mpXldH8XV9kCAwEAAaOBozCBoDAJBgNVHRMEAjAAMB0GA1UdDgQWBBRYEiRZ
pzwpFYlawhLb56VCECG3ujB0BgNVHSMEbTBrgBTy4upVZaSa4qydl/VFbPb3jBGt
36FIpEYwRDELMAkGA1UEBhMCU0UxEDAOBgNVBAgTB1VwcHNhbGExEDAOBgNVBAcT
B1VwcHNhbGExETAPBgNVBAoTCE15U1FMIEFCggkAlel49TRQ5NUwDQYJKoZIhvcN
AQEFBQADgYEAzctcgzXqy8vDqMOV4uZvTdjk7kHdPzWCrC/9Y4lPOhnXgXWzo/w2
shLVxla8E2A3M26g2K58iPlL7nsfyPBWGQdNu0VSHHiBB3wThriGcIXkcSVYeNG+
3iKCbRpLBqzw6FCHx2lkwmFDzZYGpn4JqQIBKqJA880QgEjQNFVAuc4=
-----END CERTIFICATE-----
