Certificate:
    Data:
        Version: 3 (0x2)
        Serial Number: 1 (0x1)
        Signature Algorithm: sha1WithRSAEncryption
        Issuer: C=FI, ST=Tuusula, O=Monty Program Ab/emailAddress=abstract.developer@askmonty.org
        Validity
            Not Before: Jan 28 21:59:14 2010 GMT
            Not After : Dec  7 21:59:14 2019 GMT
        Subject: C=FI, ST=Tuusula, O=Monty Program Ab, CN=localhost/emailAddress=abstract.developer@askmonty.org
        Subject Public Key Info:
            Public Key Algorithm: rsaEncryption
            RSA Public Key: (1024 bit)
                Modulus (1024 bit):
                    00:cc:79:74:2a:14:7e:77:06:b0:ec:1b:b6:da:70:
                    4c:4f:0e:94:04:8a:e7:69:f4:4c:9c:67:22:41:56:
                    3a:96:53:9e:95:9d:17:55:80:41:c0:13:d6:94:0f:
                    cd:2c:51:fe:a4:6e:f2:74:d8:5d:3b:3a:80:e3:85:
                    5b:a5:bc:7d:5c:25:55:e5:40:77:fe:f3:cb:5b:cd:
                    da:a5:f4:36:64:30:a2:a0:7f:93:b3:c4:56:75:2a:
                    c0:f7:65:2a:d7:e6:ff:88:25:03:e0:b4:40:2e:74:
                    4c:cb:46:95:73:cb:25:5c:87:0e:ec:0f:5a:19:c2:
                    b6:dc:9e:e8:f0:30:b1:9c:99
                Exponent: 65537 (0x10001)
        X509v3 extensions:
            X509v3 Basic Constraints: 
                CA:FALSE
            Netscape Comment: 
                OpenSSL Generated Certificate
            X509v3 Subject Key Identifier: 
                6D:13:3B:40:52:3C:AF:18:EA:33:D1:B7:56:21:1B:05:FE:0B:9E:38
            X509v3 Authority Key Identifier: 
                keyid:E0:8A:68:D1:C5:14:FA:E3:BB:C0:30:CD:6C:52:7F:DE:88:29:F4:70

    Signature Algorithm: sha1WithRSAEncryption
        97:db:65:23:7f:f1:15:3c:1e:83:ac:0e:0a:50:a0:0c:22:b8:
        45:d4:ca:21:05:47:3b:3d:03:b5:6c:4b:8d:bb:5f:57:c3:c7:
        4e:71:23:cf:33:a3:7f:a0:3d:bd:58:75:b8:37:22:16:2f:e9:
        ed:ae:9b:94:29:81:6e:34:79:cf:41:bd:3d:8d:17:d7:22:1c:
        1b:58:c7:0f:79:13:56:1d:e8:d8:4e:e5:07:3f:79:1b:dd:c4:
        06:9b:c5:b6:02:34:43:c5:bf:e5:87:ad:f1:c1:8a:f2:be:c2:
        00:1d:d4:27:1f:87:c8:80:31:ec:6e:97:95:b4:84:40:d1:73:
        42:71
-----BEGIN CERTIFICATE-----
MIIC2TCCAkKgAwIBAgIBATANBgkqhkiG9w0BAQUFADBqMQswCQYDVQQGEwJGSTEQ
MA4GA1UECBMHVHV1c3VsYTEZMBcGA1UEChMQTW9udHkgUHJvZ3JhbSBBYjEuMCwG
CSqGSIb3DQEJARYfYWJzdHJhY3QuZGV2ZWxvcGVyQGFza21vbnR5Lm9yZzAeFw0x
MDAxMjgyMTU5MTRaFw0xOTEyMDcyMTU5MTRaMH4xCzAJBgNVBAYTAkZJMRAwDgYD
VQQIEwdUdXVzdWxhMRkwFwYDVQQKExBNb250eSBQcm9ncmFtIEFiMRIwEAYDVQQD
Ewlsb2NhbGhvc3QxLjAsBgkqhkiG9w0BCQEWH2Fic3RyYWN0LmRldmVsb3BlckBh
c2ttb250eS5vcmcwgZ8wDQYJKoZIhvcNAQEBBQADgY0AMIGJAoGBAMx5dCoUfncG
sOwbttpwTE8OlASK52n0TJxnIkFWOpZTnpWdF1WAQcAT1pQPzSxR/qRu8nTYXTs6
gOOFW6W8fVwlVeVAd/7zy1vN2qX0NmQwoqB/k7PEVnUqwPdlKtfm/4glA+C0QC50
TMtGlXPLJVyHDuwPWhnCttye6PAwsZyZAgMBAAGjezB5MAkGA1UdEwQCMAAwLAYJ
YIZIAYb4QgENBB8WHU9wZW5TU0wgR2VuZXJhdGVkIENlcnRpZmljYXRlMB0GA1Ud
DgQWBBRtEztAUjyvGOoz0bdWIRsF/gueODAfBgNVHSMEGDAWgBTgimjRxRT647vA
MM1sUn/eiCn0cDANBgkqhkiG9w0BAQUFAAOBgQCX22Ujf/EVPB6DrA4KUKAMIrhF
1MohBUc7PQO1bEuNu19Xw8dOcSPPM6N/oD29WHW4NyIWL+ntrpuUKYFuNHnPQb09
jRfXIhwbWMcPeRNWHejYTuUHP3kb3cQGm8W2AjRDxb/lh63xwYryvsIAHdQnH4fI
gDHsbpeVtIRA0XNCcQ==
-----END CERTIFICATE-----
