Certificate:
    Data:
        Version: 3 (0x2)
        Serial Number: 16263805969935345172 (0xe1b4a55c3ddfa614)
    Signature Algorithm: sha256WithRSAEncryption
        Issuer: C=SE, ST=Stockholm, L=Stockholm, O=Oracle, OU=MySQL, CN=CA
        Validity
            Not Before: Dec  5 04:48:40 2014 GMT
            Not After : Dec  1 04:48:40 2029 GMT
        Subject: C=SE, ST=Stockholm, L=Stockholm, O=Oracle, OU=MySQL, CN=localhost
        Subject Public Key Info:
            Public Key Algorithm: rsaEncryption
                Public-Key: (2048 bit)
                Modulus:
                    00:e9:20:e7:05:51:07:3a:48:b9:e2:62:a2:24:45:
                    1f:f1:54:34:22:5c:62:86:9b:01:e8:c2:45:90:00:
                    8d:4e:e4:a2:ea:e9:d7:b5:95:25:ce:18:ac:1a:4f:
                    b3:e6:30:46:af:20:13:40:84:df:21:dc:df:09:e5:
                    a0:7f:81:12:6e:1e:84:58:5c:a1:11:db:aa:b6:04:
                    e0:fc:1e:0c:11:2e:f3:30:62:1a:f9:ee:df:fe:a3:
                    d3:d6:83:6e:ad:e8:8d:98:89:b1:69:63:b8:72:f4:
                    5a:e6:22:5e:73:64:95:ef:56:92:92:0b:e1:93:a5:
                    d7:4c:41:47:e7:31:ed:09:68:b3:c5:6e:c1:1b:01:
                    39:bb:f1:8f:bf:ba:f4:02:e2:e5:e5:9e:b7:d6:9a:
                    b2:94:76:9b:48:d8:27:18:0e:9f:30:98:f5:9a:3e:
                    23:e6:3b:4a:48:ee:a5:26:e8:80:94:37:e4:4a:ba:
                    ff:9f:42:b9:32:dd:7a:9d:63:11:a8:25:99:b1:1f:
                    86:e5:7c:b1:31:e3:12:11:0c:eb:f6:1d:02:4b:1d:
                    34:cb:74:1d:7f:2f:40:c0:81:e2:04:d4:8e:ea:96:
                    f8:22:35:8e:ab:b6:99:33:36:ef:b5:83:11:88:6d:
                    06:0f:76:4d:bf:db:a8:df:6c:3c:91:e2:ba:73:a0:
                    73:45
                Exponent: 65537 (0x10001)
        X509v3 extensions:
            X509v3 Basic Constraints: 
                CA:FALSE
            Netscape Comment: 
                OpenSSL Generated Certificate
            X509v3 Subject Key Identifier: 
                E4:31:D8:D5:06:EA:C6:B3:A2:F6:01:39:8F:58:08:36:2C:7B:3F:DB
            X509v3 Authority Key Identifier: 
                keyid:94:65:A1:A3:87:CF:BF:C1:74:BB:D8:84:97:B6:6B:EE:B2:90:73:B2

    Signature Algorithm: sha256WithRSAEncryption
         46:ef:cd:bf:c1:ef:36:a9:cb:99:b5:be:e2:a7:ba:69:0d:f5:
         9b:63:39:78:32:35:01:a8:b9:f1:70:0e:b5:d1:8f:94:2e:7a:
         cb:65:d4:d0:b4:ad:52:b8:51:5f:64:2e:a8:08:a5:71:fe:c2:
         35:8a:0d:28:26:e5:be:ca:d7:f4:79:54:e1:27:8f:87:92:d3:
         04:72:1b:cc:c4:7f:8b:26:09:92:2d:c8:6f:27:da:97:31:80:
         0f:83:84:9c:e0:a4:88:c9:e3:8f:35:e7:de:bd:31:e2:fa:52:
         83:de:ee:5c:60:6e:8f:a5:8d:5e:53:41:18:42:f3:03:0b:05:
         0b:59:09:42:2e:1b:0b:29:b3:fe:11:3b:d5:ad:3f:4d:24:e8:
         c0:da:4c:0d:93:94:ec:cd:18:0f:66:cd:03:d3:ee:a0:b2:7f:
         64:d7:39:66:19:72:9f:64:43:38:b4:b6:b3:ea:6f:39:e7:09:
         98:90:9f:6c:f5:e8:b3:2e:09:8d:7b:76:65:30:f4:c4:9b:8e:
         10:4e:9b:8c:93:63:44:9d:2b:8a:f3:f0:cf:f8:7b:65:95:38:
         fb:b4:92:e8:6c:11:03:a2:a2:2f:ea:e0:22:b7:cd:cf:0d:a5:
         91:23:14:47:0c:34:8f:f1:11:cc:e8:1e:37:53:ec:a1:01:81:
         20:c0:2c:f5
-----BEGIN CERTIFICATE-----
MIIDyzCCArOgAwIBAgIJAOG0pVw936YUMA0GCSqGSIb3DQEBCwUAMGMxCzAJBgNV
BAYTAlNFMRIwEAYDVQQIDAlTdG9ja2hvbG0xEjAQBgNVBAcMCVN0b2NraG9sbTEP
MA0GA1UECgwGT3JhY2xlMQ4wDAYDVQQLDAVNeVNRTDELMAkGA1UEAwwCQ0EwHhcN
MTQxMjA1MDQ0ODQwWhcNMjkxMjAxMDQ0ODQwWjBqMQswCQYDVQQGEwJTRTESMBAG
A1UECAwJU3RvY2tob2xtMRIwEAYDVQQHDAlTdG9ja2hvbG0xDzANBgNVBAoMBk9y
YWNsZTEOMAwGA1UECwwFTXlTUUwxEjAQBgNVBAMMCWxvY2FsaG9zdDCCASIwDQYJ
KoZIhvcNAQEBBQADggEPADCCAQoCggEBAOkg5wVRBzpIueJioiRFH/FUNCJcYoab
AejCRZAAjU7kourp17WVJc4YrBpPs+YwRq8gE0CE3yHc3wnloH+BEm4ehFhcoRHb
qrYE4PweDBEu8zBiGvnu3/6j09aDbq3ojZiJsWljuHL0WuYiXnNkle9WkpIL4ZOl
10xBR+cx7Qlos8VuwRsBObvxj7+69ALi5eWet9aaspR2m0jYJxgOnzCY9Zo+I+Y7
SkjupSbogJQ35Eq6/59CuTLdep1jEaglmbEfhuV8sTHjEhEM6/YdAksdNMt0HX8v
QMCB4gTUjuqW+CI1jqu2mTM277WDEYhtBg92Tb/bqN9sPJHiunOgc0UCAwEAAaN7
MHkwCQYDVR0TBAIwADAsBglghkgBhvhCAQ0EHxYdT3BlblNTTCBHZW5lcmF0ZWQg
Q2VydGlmaWNhdGUwHQYDVR0OBBYEFOQx2NUG6sazovYBOY9YCDYsez/bMB8GA1Ud
IwQYMBaAFJRloaOHz7/BdLvYhJe2a+6ykHOyMA0GCSqGSIb3DQEBCwUAA4IBAQBG
782/we82qcuZtb7ip7ppDfWbYzl4MjUBqLnxcA610Y+ULnrLZdTQtK1SuFFfZC6o
CKVx/sI1ig0oJuW+ytf0eVThJ4+HktMEchvMxH+LJgmSLchvJ9qXMYAPg4Sc4KSI
yeOPNefevTHi+lKD3u5cYG6PpY1eU0EYQvMDCwULWQlCLhsLKbP+ETvVrT9NJOjA
2kwNk5TszRgPZs0D0+6gsn9k1zlmGXKfZEM4tLaz6m855wmYkJ9s9eizLgmNe3Zl
MPTEm44QTpuMk2NEnSuK8/DP+HtllTj7tJLobBEDoqIv6uAit83PDaWRIxRHDDSP
8RHM6B43U+yhAYEgwCz1
-----END CERTIFICATE-----
