Certificate:
    Data:
        Version: 3 (0x2)
        Serial Number: 1 (0x1)
    Signature Algorithm: sha1WithRSAEncryption
        Issuer: C=SE, ST=Uppsala, L=Uppsala, O=MySQL AB
        Validity
            Not Before: Jan 29 13:33:36 2015 GMT
            Not After : Jan 24 13:33:36 2035 GMT
        Subject: C=SE, ST=Uppsala, O=MySQL AB, CN=localhost
        Subject Public Key Info:
            Public Key Algorithm: rsaEncryption
                Public-Key: (1024 bit)
                Modulus:
                    00:9c:3a:93:e6:10:8c:b3:e2:57:2f:57:5d:03:4f:
                    0a:e6:fd:44:1a:f3:49:42:70:58:3a:d5:a3:96:ef:
                    f2:98:39:09:fa:8c:57:12:d5:8b:1e:a5:b8:35:c0:
                    81:18:6d:45:c8:43:17:28:47:cc:67:8d:dc:3f:9e:
                    29:0a:f8:e5:99:ec:01:ca:d1:42:62:91:47:ee:85:
                    1b:b6:65:95:49:08:99:b8:b9:b6:2a:cf:04:05:e9:
                    5f:a3:7f:d1:c3:08:a0:37:3f:d6:fe:eb:d4:dd:7c:
                    0a:37:ad:00:43:d1:5d:cf:21:56:9c:d4:6b:d2:7c:
                    56:5e:25:fa:e4:2a:ef:14:95
                Exponent: 65537 (0x10001)
        X509v3 extensions:
            X509v3 Basic Constraints: 
                CA:FALSE
            Netscape Comment: 
                OpenSSL Generated Certificate
            X509v3 Subject Key Identifier: 
                E2:04:9A:5D:CB:44:EC:98:C9:84:13:36:A4:7A:41:AC:34:3D:CD:0C
            X509v3 Authority Key Identifier: 
                keyid:D0:25:36:E4:E6:DB:8B:6E:4F:8A:4D:20:48:A4:21:3A:58:7E:EF:C4

    Signature Algorithm: sha1WithRSAEncryption
         28:f8:8b:22:d4:8e:00:29:cb:0e:b2:82:f1:a6:3b:e2:c6:76:
         0a:79:b5:e3:6b:b2:80:c9:af:8b:df:c5:d7:f4:cb:ab:37:3c:
         b2:be:78:b7:2d:ac:77:f1:52:bd:6c:ae:a4:70:1d:98:92:e5:
         07:71:99:6c:70:4e:f2:c5:9d:da:c4:31:29:3e:fb:df:82:90:
         5c:76:97:0a:70:c3:dd:0c:cc:be:7d:4c:40:f7:25:9f:6f:d3:
         37:c5:9b:1a:09:e1:fe:28:08:59:79:17:ac:64:cb:aa:e0:ac:
         17:f3:3e:72:69:91:f2:16:8d:c6:3e:89:33:77:be:74:8f:69:
         ad:9f:4d:96:e1:51:68:ba:4c:7b:3f:26:7f:14:38:be:e9:07:
         5d:2b:c2:fb:58:1d:40:c3:b8:21:a8:ee:0e:69:82:7a:21:67:
         36:16:41:08:dc:71:e4:7c:d2:f1:58:3b:c8:7b:56:63:b4:1c:
         f6:7c:2a:3e:95:2b:03:9f:9c:41:b9:95:1a:bc:ab:b7:39:1b:
         8e:68:6e:78:ac:2e:18:00:3c:bf:c6:42:c0:62:5f:ba:ec:9f:
         81:da:0e:76:94:a7:88:68:71:22:ef:d1:4a:15:94:5e:cb:5a:
         9c:af:59:b3:f7:1a:ad:8f:74:e8:fc:a5:b1:da:f9:4f:fc:d6:
         f8:11:4c:a9
-----BEGIN CERTIFICATE-----
MIIC/DCCAeSgAwIBAgIBATANBgkqhkiG9w0BAQUFADBEMQswCQYDVQQGEwJTRTEQ
MA4GA1UECAwHVXBwc2FsYTEQMA4GA1UEBwwHVXBwc2FsYTERMA8GA1UECgwITXlT
UUwgQUIwHhcNMTUwMTI5MTMzMzM2WhcNMzUwMTI0MTMzMzM2WjBGMQswCQYDVQQG
EwJTRTEQMA4GA1UECAwHVXBwc2FsYTERMA8GA1UECgwITXlTUUwgQUIxEjAQBgNV
BAMMCWxvY2FsaG9zdDCBnzANBgkqhkiG9w0BAQEFAAOBjQAwgYkCgYEAnDqT5hCM
s+JXL1ddA08K5v1EGvNJQnBYOtWjlu/ymDkJ+oxXEtWLHqW4NcCBGG1FyEMXKEfM
Z43cP54pCvjlmewBytFCYpFH7oUbtmWVSQiZuLm2Ks8EBelfo3/RwwigNz/W/uvU
3XwKN60AQ9FdzyFWnNRr0nxWXiX65CrvFJUCAwEAAaN7MHkwCQYDVR0TBAIwADAs
BglghkgBhvhCAQ0EHxYdT3BlblNTTCBHZW5lcmF0ZWQgQ2VydGlmaWNhdGUwHQYD
VR0OBBYEFOIEml3LROyYyYQTNqR6Qaw0Pc0MMB8GA1UdIwQYMBaAFNAlNuTm24tu
T4pNIEikITpYfu/EMA0GCSqGSIb3DQEBBQUAA4IBAQAo+Isi1I4AKcsOsoLxpjvi
xnYKebXja7KAya+L38XX9MurNzyyvni3Lax38VK9bK6kcB2YkuUHcZlscE7yxZ3a
xDEpPvvfgpBcdpcKcMPdDMy+fUxA9yWfb9M3xZsaCeH+KAhZeResZMuq4KwX8z5y
aZHyFo3GPokzd750j2mtn02W4VFoukx7PyZ/FDi+6QddK8L7WB1Aw7ghqO4OaYJ6
IWc2FkEI3HHkfNLxWDvIe1ZjtBz2fCo+lSsDn5xBuZUavKu3ORuOaG54rC4YADy/
xkLAYl+67J+B2g52lKeIaHEi79FKFZRey1qcr1mz9xqtj3To/KWx2vlP/Nb4EUyp
-----END CERTIFICATE-----
