Certificate:
    Data:
        Version: 3 (0x2)
        Serial Number: 2 (0x2)
    Signature Algorithm: sha1WithRSAEncryption
        Issuer: C=SE, ST=Uppsala, L=Uppsala, O=MySQL AB
        Validity
            Not Before: Jan 29 13:33:49 2015 GMT
            Not After : Jan 24 13:33:49 2035 GMT
        Subject: C=SE, ST=Uppsala, O=MySQL AB, CN=server
        Subject Public Key Info:
            Public Key Algorithm: rsaEncryption
                Public-Key: (8192 bit)
                Modulus:
                    00:bd:48:03:11:06:b5:8b:92:f6:9f:2b:27:e0:3d:
                    6c:8b:87:cc:7b:cf:e5:7b:e9:5f:eb:8d:4c:95:36:
                    68:a6:1d:dc:81:10:83:c0:bb:97:c9:ac:4b:d1:c2:
                    a1:64:2a:09:e2:1e:5f:26:14:42:6b:b8:8c:82:ea:
                    6a:d8:df:9b:dd:46:9a:23:52:66:03:51:25:90:2f:
                    96:d4:c2:ec:1f:6c:a7:de:3a:eb:49:7c:da:81:ae:
                    42:48:30:59:82:43:d6:ab:00:a1:22:80:e5:1c:f4:
                    74:3c:59:42:e4:a2:6b:5d:13:69:1e:74:a3:f9:a2:
                    71:eb:a6:b6:7b:ba:12:49:a8:4b:47:40:ed:f0:2e:
                    94:80:23:73:5c:51:7a:2a:5c:96:bc:a1:20:7b:bb:
                    38:b6:41:11:53:92:c4:1c:95:cf:d4:b2:62:ce:65:
                    bc:dd:4a:34:76:71:8f:e3:3e:fb:4c:0c:8f:dd:51:
                    69:a3:e0:4c:c5:23:fa:c2:fd:5a:24:5d:cb:b1:fe:
                    f1:21:3f:c4:16:f1:d1:53:09:0c:72:bb:9b:01:b6:
                    c0:13:34:8e:bf:39:30:db:c5:f0:fc:6d:38:92:c3:
                    a8:8c:91:59:cb:b1:ce:4f:2e:7b:2f:6c:65:69:d9:
                    8c:35:f9:b8:ae:1b:9d:2f:ee:b0:26:23:43:9b:d8:
                    ab:08:90:6a:d0:1d:cb:09:73:64:a4:55:95:f4:6f:
                    0d:17:c5:ef:53:ea:6f:a0:13:3d:c1:cb:60:d0:1c:
                    aa:02:a3:22:4b:05:0a:26:86:ae:ed:73:0e:b7:6c:
                    b4:3b:ee:f1:34:01:60:9d:82:3d:e3:78:b0:ca:af:
                    ed:8e:f2:56:ac:de:1c:9b:f7:2c:55:cc:58:94:11:
                    92:55:a9:38:75:61:71:c4:da:95:7a:d4:7f:03:2d:
                    9d:29:76:e3:f7:c9:69:56:54:a0:b9:db:b9:ea:46:
                    e0:1a:55:a2:0f:cd:80:0f:4d:cf:7a:51:9c:f2:d5:
                    e4:6d:9a:59:95:e1:7e:00:2e:2e:e5:30:14:6c:8e:
                    21:52:3b:f8:01:7c:9b:c8:ba:77:fd:41:1e:d4:b9:
                    a3:58:e1:4e:6d:a6:45:7e:cf:4f:3b:bb:a3:dd:a6:
                    99:e8:d6:45:e3:28:d7:5b:b1:25:34:cb:15:3c:31:
                    16:91:3b:01:76:32:b4:dd:c0:07:e9:d9:d9:87:f6:
                    c9:c2:6a:30:05:47:ba:d9:1b:98:b5:2b:50:9f:71:
                    ee:41:76:d6:0a:f5:30:de:0d:c6:d2:e1:ec:f7:7c:
                    3e:97:13:5b:fb:2f:cf:82:7a:28:c0:98:e3:20:96:
                    2c:f0:a7:30:19:ee:3d:66:c6:1e:f9:e8:f1:aa:11:
                    aa:fa:38:7f:89:c6:74:fa:7c:22:8e:37:5c:49:20:
                    98:ae:cd:bc:21:d5:76:7b:66:f8:cf:07:3f:bc:07:
                    bf:75:ec:96:90:7f:62:10:31:eb:fe:60:c5:bf:78:
                    d5:51:f5:87:70:d5:ce:a9:17:4d:f5:b4:69:7e:08:
                    98:19:cf:31:dd:f4:cd:b9:17:2d:46:d2:23:08:e4:
                    d1:75:c8:c5:a1:c4:5c:d8:26:bc:d8:bc:10:71:e1:
                    5d:b7:2a:a3:c8:17:1c:7e:55:3c:d5:92:72:50:99:
                    a7:6c:a0:0d:5a:46:89:1c:71:e8:2c:05:b8:60:3d:
                    03:74:05:2d:f4:20:4f:11:a7:04:82:ba:32:b8:5f:
                    de:ee:b6:bb:b2:7a:c2:64:ff:cc:5a:08:1c:c4:d8:
                    ac:e4:37:be:d4:1d:f2:7b:4a:db:5a:0d:07:25:88:
                    e2:74:91:ec:30:3a:97:b4:87:68:de:d7:53:6a:b8:
                    cd:54:cd:b0:de:55:95:f6:76:41:3f:3c:37:27:0a:
                    d0:bb:54:42:cf:5a:9f:3f:bc:9f:2b:45:f7:64:1e:
                    d5:f8:98:75:8b:e9:b1:9d:32:00:bf:6a:f1:78:eb:
                    f3:db:0b:12:16:62:4b:b3:b3:a9:c4:e2:48:72:cb:
                    c4:a7:f5:26:23:27:32:63:3d:b7:40:70:d0:14:e6:
                    93:56:e4:8b:c6:21:40:35:4b:2d:59:e2:21:97:df:
                    cb:14:cb:eb:a5:27:a8:56:83:9c:94:ce:76:a6:2b:
                    25:5d:51:de:0b:40:86:29:ae:2c:e6:74:a7:7d:b8:
                    d7:13:1a:df:fc:d3:de:f8:38:24:d6:69:5e:69:61:
                    6f:ad:ea:d7:94:61:22:30:6c:08:4a:3f:71:6f:c9:
                    c0:d1:08:ca:06:ef:e4:12:a2:75:dd:a6:15:a2:56:
                    14:82:e2:5e:b8:fe:87:09:70:c1:12:7d:84:29:5d:
                    cf:b1:a4:45:7a:c6:a6:d3:91:c9:83:ec:0b:d9:95:
                    25:5c:a7:fb:c4:75:2f:f7:13:31:1d:b5:48:20:2c:
                    fb:eb:95:02:80:2e:81:bb:32:92:28:da:71:5b:42:
                    97:c7:66:3d:2c:be:b3:ab:ee:30:68:b0:6b:11:f9:
                    0d:5a:82:0d:5f:d6:3a:2a:99:f3:2a:e4:b5:47:c0:
                    34:ce:94:ac:17:68:68:cd:72:52:f5:83:bd:17:f9:
                    7b:ad:76:0a:98:6e:83:6f:4b:02:b6:af:bd:c2:e7:
                    60:68:e5:e8:a5:90:1c:30:ce:c6:bc:78:e6:0f:77:
                    7d:9c:7e:62:49:8c:54:4b:a5:98:be:31:b7:05:21:
                    b1:6a:9c:2a:76:7f:20:f5:f5:1f:2a:40:80:b5:05:
                    57:12:b9:d0:29
                Exponent: 65537 (0x10001)
        X509v3 extensions:
            X509v3 Basic Constraints: 
                CA:FALSE
            Netscape Comment: 
                OpenSSL Generated Certificate
            X509v3 Subject Key Identifier: 
                DF:F6:30:35:E7:24:29:DF:22:90:5F:EF:7C:1F:14:E9:5B:1C:98:1D
            X509v3 Authority Key Identifier: 
                keyid:D0:25:36:E4:E6:DB:8B:6E:4F:8A:4D:20:48:A4:21:3A:58:7E:EF:C4

    Signature Algorithm: sha1WithRSAEncryption
         78:18:7b:57:42:67:41:d3:b8:3e:2f:ad:74:e6:c0:de:2e:83:
         ea:fa:07:5c:06:fe:d6:47:46:85:5a:df:67:17:86:f3:da:52:
         83:98:9a:5f:80:a3:a5:60:ab:07:f0:f0:d8:c5:9d:c5:09:53:
         ad:79:c4:c0:31:35:af:0c:e7:41:8e:b7:aa:ca:36:ee:90:6b:
         34:a6:19:1c:3b:1a:90:3a:91:10:47:12:a0:31:49:0c:c2:38:
         68:0e:38:57:24:d6:12:c6:4c:bb:b2:b4:d8:ab:9e:80:93:ad:
         af:84:01:d0:e8:2b:b3:ea:f6:c0:bc:4a:fa:01:b1:ce:fa:ab:
         eb:f1:08:b3:0d:83:fc:08:57:79:02:74:4c:09:56:14:0a:52:
         e0:02:74:76:44:66:2b:12:fe:8d:d4:8c:30:90:41:3b:4a:7b:
         3f:1c:7c:86:74:97:94:66:43:39:da:7d:20:4a:ba:3a:17:49:
         ac:c7:fa:72:ee:d8:84:09:e6:f4:84:8d:e3:2a:7b:70:36:93:
         88:f8:60:ef:7f:b8:e8:51:61:16:6f:a0:94:b8:7d:ff:3f:ec:
         25:fe:42:cf:0e:0d:ab:06:07:88:7a:e2:ba:d5:62:ff:19:19:
         37:43:ff:92:53:8c:ea:31:6f:a1:14:89:3b:b4:d1:3c:45:e8:
         9c:ef:bb:2d
-----BEGIN CERTIFICATE-----
MIIGfTCCBWWgAwIBAgIBAjANBgkqhkiG9w0BAQUFADBEMQswCQYDVQQGEwJTRTEQ
MA4GA1UECAwHVXBwc2FsYTEQMA4GA1UEBwwHVXBwc2FsYTERMA8GA1UECgwITXlT
UUwgQUIwHhcNMTUwMTI5MTMzMzQ5WhcNMzUwMTI0MTMzMzQ5WjBDMQswCQYDVQQG
EwJTRTEQMA4GA1UECAwHVXBwc2FsYTERMA8GA1UECgwITXlTUUwgQUIxDzANBgNV
BAMMBnNlcnZlcjCCBCIwDQYJKoZIhvcNAQEBBQADggQPADCCBAoCggQBAL1IAxEG
tYuS9p8rJ+A9bIuHzHvP5XvpX+uNTJU2aKYd3IEQg8C7l8msS9HCoWQqCeIeXyYU
Qmu4jILqatjfm91GmiNSZgNRJZAvltTC7B9sp94660l82oGuQkgwWYJD1qsAoSKA
5Rz0dDxZQuSia10TaR50o/miceumtnu6EkmoS0dA7fAulIAjc1xReipclryhIHu7
OLZBEVOSxByVz9SyYs5lvN1KNHZxj+M++0wMj91RaaPgTMUj+sL9WiRdy7H+8SE/
xBbx0VMJDHK7mwG2wBM0jr85MNvF8PxtOJLDqIyRWcuxzk8uey9sZWnZjDX5uK4b
nS/usCYjQ5vYqwiQatAdywlzZKRVlfRvDRfF71Pqb6ATPcHLYNAcqgKjIksFCiaG
ru1zDrdstDvu8TQBYJ2CPeN4sMqv7Y7yVqzeHJv3LFXMWJQRklWpOHVhccTalXrU
fwMtnSl24/fJaVZUoLnbuepG4BpVog/NgA9Nz3pRnPLV5G2aWZXhfgAuLuUwFGyO
IVI7+AF8m8i6d/1BHtS5o1jhTm2mRX7PTzu7o92mmejWReMo11uxJTTLFTwxFpE7
AXYytN3AB+nZ2Yf2ycJqMAVHutkbmLUrUJ9x7kF21gr1MN4NxtLh7Pd8PpcTW/sv
z4J6KMCY4yCWLPCnMBnuPWbGHvno8aoRqvo4f4nGdPp8Io43XEkgmK7NvCHVdntm
+M8HP7wHv3XslpB/YhAx6/5gxb941VH1h3DVzqkXTfW0aX4ImBnPMd30zbkXLUbS
Iwjk0XXIxaHEXNgmvNi8EHHhXbcqo8gXHH5VPNWSclCZp2ygDVpGiRxx6CwFuGA9
A3QFLfQgTxGnBIK6Mrhf3u62u7J6wmT/zFoIHMTYrOQ3vtQd8ntK21oNByWI4nSR
7DA6l7SHaN7XU2q4zVTNsN5VlfZ2QT88NycK0LtUQs9anz+8nytF92Qe1fiYdYvp
sZ0yAL9q8Xjr89sLEhZiS7OzqcTiSHLLxKf1JiMnMmM9t0Bw0BTmk1bki8YhQDVL
LVniIZffyxTL66UnqFaDnJTOdqYrJV1R3gtAhimuLOZ0p3241xMa3/zT3vg4JNZp
Xmlhb63q15RhIjBsCEo/cW/JwNEIygbv5BKidd2mFaJWFILiXrj+hwlwwRJ9hCld
z7GkRXrGptORyYPsC9mVJVyn+8R1L/cTMR21SCAs++uVAoAugbsykijacVtCl8dm
PSy+s6vuMGiwaxH5DVqCDV/WOiqZ8yrktUfANM6UrBdoaM1yUvWDvRf5e612Cphu
g29LAravvcLnYGjl6KWQHDDOxrx45g93fZx+YkmMVEulmL4xtwUhsWqcKnZ/IPX1
HypAgLUFVxK50CkCAwEAAaN7MHkwCQYDVR0TBAIwADAsBglghkgBhvhCAQ0EHxYd
T3BlblNTTCBHZW5lcmF0ZWQgQ2VydGlmaWNhdGUwHQYDVR0OBBYEFN/2MDXnJCnf
IpBf73wfFOlbHJgdMB8GA1UdIwQYMBaAFNAlNuTm24tuT4pNIEikITpYfu/EMA0G
CSqGSIb3DQEBBQUAA4IBAQB4GHtXQmdB07g+L6105sDeLoPq+gdcBv7WR0aFWt9n
F4bz2lKDmJpfgKOlYKsH8PDYxZ3FCVOtecTAMTWvDOdBjreqyjbukGs0phkcOxqQ
OpEQRxKgMUkMwjhoDjhXJNYSxky7srTYq56Ak62vhAHQ6Cuz6vbAvEr6AbHO+qvr
8QizDYP8CFd5AnRMCVYUClLgAnR2RGYrEv6N1IwwkEE7Sns/HHyGdJeUZkM52n0g
Sro6F0msx/py7tiECeb0hI3jKntwNpOI+GDvf7joUWEWb6CUuH3/P+wl/kLPDg2r
BgeIeuK61WL/GRk3Q/+SU4zqMW+hFIk7tNE8Reic77st
-----END CERTIFICATE-----
