Certificate:
    Data:
        Version: 3 (0x2)
        Serial Number: 1 (0x1)
        Signature Algorithm: sha1WithRSAEncryption
        Issuer: C=SE, ST=Uppsala, L=Uppsala, O=MySQL AB
        Validity
            Not Before: Jan 28 10:55:13 2009 GMT
            Not After : Jan 28 10:55:13 2010 GMT
        Subject: C=SE, ST=Uppsala, O=MySQL AB, CN=localhost/emailAddress=abstract.mysql.developer@mysql.com
        Subject Public Key Info:
            Public Key Algorithm: rsaEncryption
            RSA Public Key: (512 bit)
                Modulus (512 bit):
                    00:b6:8f:e5:b7:b4:86:83:13:8a:f9:bf:63:cb:64:
                    2d:b9:51:d1:de:ab:7b:45:1f:aa:b5:66:73:13:f9:
                    a6:07:d5:ba:7c:fa:92:bd:37:e2:ad:87:db:3e:b6:
                    6a:12:64:f8:ee:17:e3:15:06:2f:a8:82:68:bf:57:
                    8d:c3:04:98:27
                Exponent: 65537 (0x10001)
        X509v3 extensions:
            X509v3 Basic Constraints: 
                CA:FALSE
            X509v3 Subject Key Identifier: 
                D9:9A:B8:5F:22:EA:04:10:C8:25:7D:82:57:E6:2E:FD:19:29:E7:DA
            X509v3 Authority Key Identifier: 
                keyid:F2:E2:EA:55:65:A4:9A:E2:AC:9D:97:F5:45:6C:F6:F7:8C:11:AD:DF
                DirName:/C=SE/ST=Uppsala/L=Uppsala/O=MySQL AB
                serial:95:E9:78:F5:34:50:E4:D5

    Signature Algorithm: sha1WithRSAEncryption
        54:07:2d:21:0b:a5:af:3b:58:23:32:5e:56:7f:ab:58:63:48:
        91:aa:38:90:89:16:f9:cc:bf:a4:0e:78:2b:9f:c5:1b:58:a6:
        e6:08:8f:2e:ae:97:03:21:9b:f1:cd:c0:26:8f:1d:d7:28:27:
        a0:8e:81:09:1b:1c:0f:c9:a5:41:3a:2d:44:3f:9c:fa:87:ff:
        c8:4c:2b:44:f7:1b:c1:3e:4f:01:7f:e9:26:cc:9f:1c:06:b5:
        0b:27:d1:10:90:be:93:0c:9c:e7:b0:d1:ea:27:99:4e:06:14:
        0c:7a:e9:c1:52:c5:33:68:bc:61:0d:db:81:3b:57:48:57:bf:
        42:9a
-----BEGIN CERTIFICATE-----
MIICkzCCAfygAwIBAgIBATANBgkqhkiG9w0BAQUFADBEMQswCQYDVQQGEwJTRTEQ
MA4GA1UECBMHVXBwc2FsYTEQMA4GA1UEBxMHVXBwc2FsYTERMA8GA1UEChMITXlT
UUwgQUIwHhcNMDkwMTI4MTA1NTEzWhcNMTAwMTI4MTA1NTEzWjB5MQswCQYDVQQG
EwJTRTEQMA4GA1UECBMHVXBwc2FsYTERMA8GA1UEChMITXlTUUwgQUIxEjAQBgNV
BAMTCWxvY2FsaG9zdDExMC8GCSqGSIb3DQEJARYiYWJzdHJhY3QubXlzcWwuZGV2
ZWxvcGVyQG15c3FsLmNvbTBcMA0GCSqGSIb3DQEBAQUAA0sAMEgCQQC2j+W3tIaD
E4r5v2PLZC25UdHeq3tFH6q1ZnMT+aYH1bp8+pK9N+Kth9s+tmoSZPjuF+MVBi+o
gmi/V43DBJgnAgMBAAGjgaMwgaAwCQYDVR0TBAIwADAdBgNVHQ4EFgQU2Zq4XyLq
BBDIJX2CV+Yu/Rkp59owdAYDVR0jBG0wa4AU8uLqVWWkmuKsnZf1RWz294wRrd+h
SKRGMEQxCzAJBgNVBAYTAlNFMRAwDgYDVQQIEwdVcHBzYWxhMRAwDgYDVQQHEwdV
cHBzYWxhMREwDwYDVQQKEwhNeVNRTCBBQoIJAJXpePU0UOTVMA0GCSqGSIb3DQEB
BQUAA4GBAFQHLSELpa87WCMyXlZ/q1hjSJGqOJCJFvnMv6QOeCufxRtYpuYIjy6u
lwMhm/HNwCaPHdcoJ6COgQkbHA/JpUE6LUQ/nPqH/8hMK0T3G8E+TwF/6SbMnxwG
tQsn0RCQvpMMnOew0eonmU4GFAx66cFSxTNovGEN24E7V0hXv0Ka
-----END CERTIFICATE-----
