Certificate:
    Data:
        Version: 3 (0x2)
        Serial Number: 2 (0x2)
        Signature Algorithm: md5WithRSAEncryption
        Issuer: C=SE, L=Uppsala, O=MySQL AB, CN=Abstract MySQL Developer/Email=abstract.mysql.developer@mysql.com
        Validity
            Not Before: Sep 12 16:22:06 2003 GMT
            Not After : Sep  9 16:22:06 2013 GMT
        Subject: C=SE, L=Uppsala, O=MySQL AB, CN=MySQL Server/Email=abstract.mysql.developer@mysql.com
        Subject Public Key Info:
            Public Key Algorithm: rsaEncryption
            RSA Public Key: (1024 bit)
                Modulus (1024 bit):
                    00:e9:86:7a:55:84:88:4c:be:a4:f8:92:73:30:12:
                    49:0b:7a:85:87:39:34:39:0d:7d:0b:8d:18:c2:17:
                    95:13:52:d2:3f:55:10:57:c8:3f:5a:f5:b2:fa:8b:
                    d0:67:49:cc:aa:82:fc:9f:ce:00:b4:73:f3:36:d2:
                    3a:d3:c2:b0:0e:14:c3:d4:b2:21:74:a1:f0:31:81:
                    60:87:98:73:5c:10:c1:b1:1a:4d:f1:f3:b0:98:3f:
                    f0:d7:97:9b:2b:fd:d5:21:79:b2:2f:eb:64:15:c9:
                    9b:9d:fc:9e:2d:d4:f8:04:5b:ea:a9:75:4b:42:c3:
                    3d:0e:4d:2a:a8:b8:ca:99:8d
                Exponent: 65537 (0x10001)
        X509v3 extensions:
            X509v3 Basic Constraints: 
                CA:FALSE
            Netscape Comment: 
                OpenSSL Generated Certificate
            X509v3 Subject Key Identifier: 
                6E:E4:9B:6A:C5:EA:E4:E6:C7:EF:D7:1E:C8:63:45:60:2B:1B:D4:D4
            X509v3 Authority Key Identifier: 
                keyid:88:98:65:D9:F3:F2:8B:03:1D:66:60:61:23:FA:AD:73:6D:D3:68:92
                DirName:/C=SE/L=Uppsala/O=MySQL AB/CN=Abstract MySQL Developer/Email=abstract.mysql.developer@mysql.com
                serial:00

    Signature Algorithm: md5WithRSAEncryption
        31:77:69:b9:bd:ab:29:f3:fc:5a:09:16:6f:5d:42:ea:ba:01:
        55:69:e3:75:cf:b8:d1:b7:b9:bf:da:63:85:8c:48:92:06:60:
        76:97:e0:00:78:4b:ad:da:ab:6a:90:6d:8b:03:a8:b1:e9:09:
        78:e1:29:98:56:12:60:6b:42:fe:e8:a7:c4:f8:d6:15:07:e8:
        2b:c2:d8:8a:e5:1b:2e:51:08:9b:56:e3:b3:7a:4c:3e:e5:be:
        4a:4d:f8:65:7b:a8:21:e0:ca:fe:8b:ab:d7:ec:f2:2d:f7:d0:
        bf:d7:c5:23:1c:08:d8:aa:57:c7:f3:5f:ba:33:3f:78:d1:f4:
        8e:5e
-----BEGIN CERTIFICATE-----
MIIDkTCCAvqgAwIBAgIBAjANBgkqhkiG9w0BAQQFADCBiDELMAkGA1UEBhMCU0Ux
EDAOBgNVBAcTB1VwcHNhbGExETAPBgNVBAoTCE15U1FMIEFCMSEwHwYDVQQDExhB
YnN0cmFjdCBNeVNRTCBEZXZlbG9wZXIxMTAvBgkqhkiG9w0BCQEWImFic3RyYWN0
Lm15c3FsLmRldmVsb3BlckBteXNxbC5jb20wHhcNMDMwOTEyMTYyMjA2WhcNMTMw
OTA5MTYyMjA2WjB8MQswCQYDVQQGEwJTRTEQMA4GA1UEBxMHVXBwc2FsYTERMA8G
A1UEChMITXlTUUwgQUIxFTATBgNVBAMTDE15U1FMIFNlcnZlcjExMC8GCSqGSIb3
DQEJARYiYWJzdHJhY3QubXlzcWwuZGV2ZWxvcGVyQG15c3FsLmNvbTCBnzANBgkq
hkiG9w0BAQEFAAOBjQAwgYkCgYEA6YZ6VYSITL6k+JJzMBJJC3qFhzk0OQ19C40Y
wheVE1LSP1UQV8g/WvWy+ovQZ0nMqoL8n84AtHPzNtI608KwDhTD1LIhdKHwMYFg
h5hzXBDBsRpN8fOwmD/w15ebK/3VIXmyL+tkFcmbnfyeLdT4BFvqqXVLQsM9Dk0q
qLjKmY0CAwEAAaOCARQwggEQMAkGA1UdEwQCMAAwLAYJYIZIAYb4QgENBB8WHU9w
ZW5TU0wgR2VuZXJhdGVkIENlcnRpZmljYXRlMB0GA1UdDgQWBBRu5Jtqxerk5sfv
1x7IY0VgKxvU1DCBtQYDVR0jBIGtMIGqgBSImGXZ8/KLAx1mYGEj+q1zbdNokqGB
jqSBizCBiDELMAkGA1UEBhMCU0UxEDAOBgNVBAcTB1VwcHNhbGExETAPBgNVBAoT
CE15U1FMIEFCMSEwHwYDVQQDExhBYnN0cmFjdCBNeVNRTCBEZXZlbG9wZXIxMTAv
BgkqhkiG9w0BCQEWImFic3RyYWN0Lm15c3FsLmRldmVsb3BlckBteXNxbC5jb22C
AQAwDQYJKoZIhvcNAQEEBQADgYEAMXdpub2rKfP8WgkWb11C6roBVWnjdc+40be5
v9pjhYxIkgZgdpfgAHhLrdqrapBtiwOosekJeOEpmFYSYGtC/uinxPjWFQfoK8LY
iuUbLlEIm1bjs3pMPuW+Sk34ZXuoIeDK/our1+zyLffQv9fFIxwI2KpXx/NfujM/
eNH0jl4=
-----END CERTIFICATE-----
