Certificate:
    Data:
        Version: 3 (0x2)
        Serial Number: 0 (0x0)
        Signature Algorithm: md5WithRSAEncryption
        Issuer: C=US, ST=Oregon, L=Portland, O=sawtooth, CN=www.sawtooth-consulting.com/emailAddress=info@yassl.com
        Validity
            Not Before: Mar  7 03:10:11 2005 GMT
            Not After : Apr  1 03:10:11 2046 GMT
        Subject: C=US, ST=Oregon, L=Portland, O=sawtooth, CN=www.sawtooth-consulting.com/emailAddress=info@yassl.com
        Subject Public Key Info:
            Public Key Algorithm: rsaEncryption
            RSA Public Key: (512 bit)
                Modulus (512 bit):
                    00:ef:c1:e3:9a:3c:6e:6e:cb:26:6f:05:be:e0:cb:
                    57:a0:4b:68:e6:1b:f9:95:db:01:92:aa:6e:a6:b5:
                    2d:b1:2b:50:fd:db:13:f2:c5:d8:b8:4f:75:28:53:
                    72:e8:e5:11:9d:bb:c3:4f:4f:09:fd:4c:e7:46:d5:
                    1d:bb:35:02:af
                Exponent: 65537 (0x10001)
        X509v3 extensions:
            X509v3 Subject Key Identifier: 
                1D:EF:A1:B8:81:78:12:47:E8:57:06:08:74:18:F7:D3:AA:D8:F7:BD
            X509v3 Authority Key Identifier: 
                keyid:1D:EF:A1:B8:81:78:12:47:E8:57:06:08:74:18:F7:D3:AA:D8:F7:BD
                DirName:/C=US/ST=Oregon/L=Portland/O=sawtooth/CN=www.sawtooth-consulting.com/emailAddress=info@yassl.com
                serial:00

            X509v3 Basic Constraints: 
                CA:TRUE
    Signature Algorithm: md5WithRSAEncryption
        d9:77:e3:07:d9:2e:ec:2f:9b:8e:9e:ca:b4:00:0b:ef:c7:74:
        cb:f4:f6:44:2f:02:75:17:a5:74:3e:26:b2:26:fd:1f:ab:3a:
        df:d5:e3:05:14:08:d0:8c:1d:c9:3e:e1:59:6f:b3:38:5d:af:
        78:60:e3:c5:6a:69:96:80:7d:00
-----BEGIN CERTIFICATE-----
MIIC7zCCApmgAwIBAgIBADANBgkqhkiG9w0BAQQFADCBiTELMAkGA1UEBhMCVVMx
DzANBgNVBAgTBk9yZWdvbjERMA8GA1UEBxMIUG9ydGxhbmQxETAPBgNVBAoTCHNh
d3Rvb3RoMSQwIgYDVQQDExt3d3cuc2F3dG9vdGgtY29uc3VsdGluZy5jb20xHTAb
BgkqhkiG9w0BCQEWDmluZm9AeWFzc2wuY29tMB4XDTA1MDMwNzAzMTAxMVoXDTQ2
MDQwMTAzMTAxMVowgYkxCzAJBgNVBAYTAlVTMQ8wDQYDVQQIEwZPcmVnb24xETAP
BgNVBAcTCFBvcnRsYW5kMREwDwYDVQQKEwhzYXd0b290aDEkMCIGA1UEAxMbd3d3
LnNhd3Rvb3RoLWNvbnN1bHRpbmcuY29tMR0wGwYJKoZIhvcNAQkBFg5pbmZvQHlh
c3NsLmNvbTBcMA0GCSqGSIb3DQEBAQUAA0sAMEgCQQDvweOaPG5uyyZvBb7gy1eg
S2jmG/mV2wGSqm6mtS2xK1D92xPyxdi4T3UoU3Lo5RGdu8NPTwn9TOdG1R27NQKv
AgMBAAGjgekwgeYwHQYDVR0OBBYEFB3vobiBeBJH6FcGCHQY99Oq2Pe9MIG2BgNV
HSMEga4wgauAFB3vobiBeBJH6FcGCHQY99Oq2Pe9oYGPpIGMMIGJMQswCQYDVQQG
EwJVUzEPMA0GA1UECBMGT3JlZ29uMREwDwYDVQQHEwhQb3J0bGFuZDERMA8GA1UE
ChMIc2F3dG9vdGgxJDAiBgNVBAMTG3d3dy5zYXd0b290aC1jb25zdWx0aW5nLmNv
bTEdMBsGCSqGSIb3DQEJARYOaW5mb0B5YXNzbC5jb22CAQAwDAYDVR0TBAUwAwEB
/zANBgkqhkiG9w0BAQQFAANBANl34wfZLuwvm46eyrQAC+/HdMv09kQvAnUXpXQ+
JrIm/R+rOt/V4wUUCNCMHck+4Vlvszhdr3hg48VqaZaAfQA=
-----END CERTIFICATE-----
