Certificate:
    Data:
        Version: 3 (0x2)
        Serial Number:
            8a:37:22:65:73:f5:aa:e8
        Signature Algorithm: md5WithRSAEncryption
        Issuer: C=US, ST=Montana, L=Bozeman, O=sawtooth, OU=consulting, CN=www.sawtooth-consulting.com/emailAddress=info@yassl.com
        Validity
            Not Before: Jun 30 18:47:10 2010 GMT
            Not After : Mar 26 18:47:10 2013 GMT
        Subject: C=US, ST=Montana, L=Bozeman, O=sawtooth, OU=consulting, CN=www.sawtooth-consulting.com/emailAddress=info@yassl.com
        Subject Public Key Info:
            Public Key Algorithm: rsaEncryption
            RSA Public Key: (512 bit)
                Modulus (512 bit):
                    00:97:30:b9:1a:92:ef:25:4f:ca:4c:11:31:95:1a:
                    e1:c0:10:19:0a:20:b9:37:80:1a:57:38:02:4e:1b:
                    c5:0f:28:4f:da:e3:c9:16:aa:50:bd:4a:fb:b7:71:
                    c7:35:cc:63:81:c1:dd:9d:33:f9:38:16:88:32:a0:
                    aa:56:23:03:a3
                Exponent: 65537 (0x10001)
        X509v3 extensions:
            X509v3 Subject Key Identifier: 
                3B:66:FD:A0:40:C6:F4:E2:70:CF:21:1A:0C:4F:67:FE:B7:4B:42:09
            X509v3 Authority Key Identifier: 
                keyid:3B:66:FD:A0:40:C6:F4:E2:70:CF:21:1A:0C:4F:67:FE:B7:4B:42:09
                DirName:/C=US/ST=Montana/L=Bozeman/O=sawtooth/OU=consulting/CN=www.sawtooth-consulting.com/emailAddress=info@yassl.com
                serial:8A:37:22:65:73:F5:AA:E8

            X509v3 Basic Constraints: 
                CA:TRUE
    Signature Algorithm: md5WithRSAEncryption
        32:65:a2:b1:dc:6d:e0:8d:8b:c8:58:29:8e:b8:18:4b:62:88:
        13:67:f8:6c:75:46:75:8f:8a:19:a6:a3:d5:3c:fc:57:4e:7a:
        68:a9:fc:93:dc:ae:29:7d:bb:4e:ec:ea:55:fa:a4:e3:00:61:
        f4:b0:34:6d:d1:d5:a4:64:24:f8
-----BEGIN CERTIFICATE-----
MIIDQDCCAuqgAwIBAgIJAIo3ImVz9aroMA0GCSqGSIb3DQEBBAUAMIGeMQswCQYD
VQQGEwJVUzEQMA4GA1UECBMHTW9udGFuYTEQMA4GA1UEBxMHQm96ZW1hbjERMA8G
A1UEChMIc2F3dG9vdGgxEzARBgNVBAsTCmNvbnN1bHRpbmcxJDAiBgNVBAMTG3d3
dy5zYXd0b290aC1jb25zdWx0aW5nLmNvbTEdMBsGCSqGSIb3DQEJARYOaW5mb0B5
YXNzbC5jb20wHhcNMTAwNjMwMTg0NzEwWhcNMTMwMzI2MTg0NzEwWjCBnjELMAkG
A1UEBhMCVVMxEDAOBgNVBAgTB01vbnRhbmExEDAOBgNVBAcTB0JvemVtYW4xETAP
BgNVBAoTCHNhd3Rvb3RoMRMwEQYDVQQLEwpjb25zdWx0aW5nMSQwIgYDVQQDExt3
d3cuc2F3dG9vdGgtY29uc3VsdGluZy5jb20xHTAbBgkqhkiG9w0BCQEWDmluZm9A
eWFzc2wuY29tMFwwDQYJKoZIhvcNAQEBBQADSwAwSAJBAJcwuRqS7yVPykwRMZUa
4cAQGQoguTeAGlc4Ak4bxQ8oT9rjyRaqUL1K+7dxxzXMY4HB3Z0z+TgWiDKgqlYj
A6MCAwEAAaOCAQcwggEDMB0GA1UdDgQWBBQ7Zv2gQMb04nDPIRoMT2f+t0tCCTCB
0wYDVR0jBIHLMIHIgBQ7Zv2gQMb04nDPIRoMT2f+t0tCCaGBpKSBoTCBnjELMAkG
A1UEBhMCVVMxEDAOBgNVBAgTB01vbnRhbmExEDAOBgNVBAcTB0JvemVtYW4xETAP
BgNVBAoTCHNhd3Rvb3RoMRMwEQYDVQQLEwpjb25zdWx0aW5nMSQwIgYDVQQDExt3
d3cuc2F3dG9vdGgtY29uc3VsdGluZy5jb20xHTAbBgkqhkiG9w0BCQEWDmluZm9A
eWFzc2wuY29tggkAijciZXP1qugwDAYDVR0TBAUwAwEB/zANBgkqhkiG9w0BAQQF
AANBADJlorHcbeCNi8hYKY64GEtiiBNn+Gx1RnWPihmmo9U8/FdOemip/JPcril9
u07s6lX6pOMAYfSwNG3R1aRkJPg=
-----END CERTIFICATE-----
