-----BEGIN CERTIFICATE-----
MIIEqjCCA5KgAwIBAgIJAJpBR82hFGKMMA0GCSqGSIb3DQEBBQUAMIGUMQswCQYD
VQQGEwJVUzEQMA4GA1UECAwHTW9udGFuYTEQMA4GA1UEBwwHQm96ZW1hbjERMA8G
A1UECgwIU2F3dG9vdGgxEzARBgNVBAsMCkNvbnN1bHRpbmcxGDAWBgNVBAMMD3d3
dy53b2xmc3NsLmNvbTEfMB0GCSqGSIb3DQEJARYQaW5mb0B3b2xmc3NsLmNvbTAe
Fw0xNDA3MTEwMzIwMDhaFw0xNzA0MDYwMzIwMDhaMIGUMQswCQYDVQQGEwJVUzEQ
MA4GA1UECAwHTW9udGFuYTEQMA4GA1UEBwwHQm96ZW1hbjERMA8GA1UECgwIU2F3
dG9vdGgxEzARBgNVBAsMCkNvbnN1bHRpbmcxGDAWBgNVBAMMD3d3dy53b2xmc3Ns
LmNvbTEfMB0GCSqGSIb3DQEJARYQaW5mb0B3b2xmc3NsLmNvbTCCASIwDQYJKoZI
hvcNAQEBBQADggEPADCCAQoCggEBAL8Myi0Ush6EQlvNOB9K8k11EPG2NZ/fyn0D
mNOs3gNm7irx2LB9bgdUCxCYIU2AyxIg58xP3kV9yXJ3MurKkLtpUhADL6jzlcXx
i2JWG+9nb6QQQZWtCpvjpcCw0nB2UDBbqOgILHztp6J6jTgpHKzH7fJ8lbCVgn1J
XDjNdyXvvYB1U5Q8PcpjW58VtdMdEy8Z0TzbdjrMuH3J5cLX2kBv2CHccxtCLVOc
/hr8fat6Nj+Y3oR8BWfOahQ4h6nxjLVoy2h/cSAr9aBj9VYvoybSt2+xWhfXOJkI
/pNYb/7DE0kIFgunTWcAUjFnI06Y7VFFHbkE2Qvs2CizS73tNnkCAwEAAaOB/DCB
+TAdBgNVHQ4EFgQUJ45nEXTDJh0/7TNjs6TYHTDl6NUwgckGA1UdIwSBwTCBvoAU
J45nEXTDJh0/7TNjs6TYHTDl6NWhgZqkgZcwgZQxCzAJBgNVBAYTAlVTMRAwDgYD
VQQIDAdNb250YW5hMRAwDgYDVQQHDAdCb3plbWFuMREwDwYDVQQKDAhTYXd0b290
aDETMBEGA1UECwwKQ29uc3VsdGluZzEYMBYGA1UEAwwPd3d3LndvbGZzc2wuY29t
MR8wHQYJKoZIhvcNAQkBFhBpbmZvQHdvbGZzc2wuY29tggkAmkFHzaEUYowwDAYD
VR0TBAUwAwEB/zANBgkqhkiG9w0BAQUFAAOCAQEAeXgMbXmIkfw6FZz5J2IW8CEf
+n0/oqgyHvfyEal0FnRe3BjK8AAq1QMGJjDxR4P9Mm787apPfQxjYDEvfAy/mWaH
7ScIhi3EM+iYIxz+o9uaSU78WkLvccM/rdxKqNKjHQmsMwR7hvNtAFmjyNvRPHP2
DpDWXkngvzZjCHulsI81O1aMETVJBBzQ57pWxQ0KkY3Wt2IZNBJSTNJtfMU9DxiB
VMv2POWE0tZxFewaNAvwoCF0Q8ijsN/ZZ9rirZNI+KCHvXkU4GIK3/cxLjF70TIq
Cv5dFO/ZZFDkg5G8cA3XiI3ZvIQOxRqzv2QCTlGRpKKFFYOv8FubKElfsrMD2A==
-----END CERTIFICATE-----
Certificate:
    Data:
        Version: 3 (0x2)
        Serial Number:
            9a:41:47:cd:a1:14:62:8c
    Signature Algorithm: sha1WithRSAEncryption
        Issuer: C=US, ST=Montana, L=Bozeman, O=Sawtooth, OU=Consulting, CN=www.wolfssl.com/emailAddress=info@wolfssl.com
        Validity
            Not Before: Jul 11 03:20:08 2014 GMT
            Not After : Apr  6 03:20:08 2017 GMT
        Subject: C=US, ST=Montana, L=Bozeman, O=Sawtooth, OU=Consulting, CN=www.wolfssl.com/emailAddress=info@wolfssl.com
        Subject Public Key Info:
            Public Key Algorithm: rsaEncryption
                Public-Key: (2048 bit)
                Modulus:
                    00:bf:0c:ca:2d:14:b2:1e:84:42:5b:cd:38:1f:4a:
                    f2:4d:75:10:f1:b6:35:9f:df:ca:7d:03:98:d3:ac:
                    de:03:66:ee:2a:f1:d8:b0:7d:6e:07:54:0b:10:98:
                    21:4d:80:cb:12:20:e7:cc:4f:de:45:7d:c9:72:77:
                    32:ea:ca:90:bb:69:52:10:03:2f:a8:f3:95:c5:f1:
                    8b:62:56:1b:ef:67:6f:a4:10:41:95:ad:0a:9b:e3:
                    a5:c0:b0:d2:70:76:50:30:5b:a8:e8:08:2c:7c:ed:
                    a7:a2:7a:8d:38:29:1c:ac:c7:ed:f2:7c:95:b0:95:
                    82:7d:49:5c:38:cd:77:25:ef:bd:80:75:53:94:3c:
                    3d:ca:63:5b:9f:15:b5:d3:1d:13:2f:19:d1:3c:db:
                    76:3a:cc:b8:7d:c9:e5:c2:d7:da:40:6f:d8:21:dc:
                    73:1b:42:2d:53:9c:fe:1a:fc:7d:ab:7a:36:3f:98:
                    de:84:7c:05:67:ce:6a:14:38:87:a9:f1:8c:b5:68:
                    cb:68:7f:71:20:2b:f5:a0:63:f5:56:2f:a3:26:d2:
                    b7:6f:b1:5a:17:d7:38:99:08:fe:93:58:6f:fe:c3:
                    13:49:08:16:0b:a7:4d:67:00:52:31:67:23:4e:98:
                    ed:51:45:1d:b9:04:d9:0b:ec:d8:28:b3:4b:bd:ed:
                    36:79
                Exponent: 65537 (0x10001)
        X509v3 extensions:
            X509v3 Subject Key Identifier: 
                27:8E:67:11:74:C3:26:1D:3F:ED:33:63:B3:A4:D8:1D:30:E5:E8:D5
            X509v3 Authority Key Identifier: 
                keyid:27:8E:67:11:74:C3:26:1D:3F:ED:33:63:B3:A4:D8:1D:30:E5:E8:D5
                DirName:/C=US/ST=Montana/L=Bozeman/O=Sawtooth/OU=Consulting/CN=www.wolfssl.com/emailAddress=info@wolfssl.com
                serial:9A:41:47:CD:A1:14:62:8C

            X509v3 Basic Constraints: 
                CA:TRUE
    Signature Algorithm: sha1WithRSAEncryption
         79:78:0c:6d:79:88:91:fc:3a:15:9c:f9:27:62:16:f0:21:1f:
         fa:7d:3f:a2:a8:32:1e:f7:f2:11:a9:74:16:74:5e:dc:18:ca:
         f0:00:2a:d5:03:06:26:30:f1:47:83:fd:32:6e:fc:ed:aa:4f:
         7d:0c:63:60:31:2f:7c:0c:bf:99:66:87:ed:27:08:86:2d:c4:
         33:e8:98:23:1c:fe:a3:db:9a:49:4e:fc:5a:42:ef:71:c3:3f:
         ad:dc:4a:a8:d2:a3:1d:09:ac:33:04:7b:86:f3:6d:00:59:a3:
         c8:db:d1:3c:73:f6:0e:90:d6:5e:49:e0:bf:36:63:08:7b:a5:
         b0:8f:35:3b:56:8c:11:35:49:04:1c:d0:e7:ba:56:c5:0d:0a:
         91:8d:d6:b7:62:19:34:12:52:4c:d2:6d:7c:c5:3d:0f:18:81:
         54:cb:f6:3c:e5:84:d2:d6:71:15:ec:1a:34:0b:f0:a0:21:74:
         43:c8:a3:b0:df:d9:67:da:e2:ad:93:48:f8:a0:87:bd:79:14:
         e0:62:0a:df:f7:31:2e:31:7b:d1:32:2a:0a:fe:5d:14:ef:d9:
         64:50:e4:83:91:bc:70:0d:d7:88:8d:d9:bc:84:0e:c5:1a:b3:
         bf:64:02:4e:51:91:a4:a2:85:15:83:af:f0:5b:9b:28:49:5f:
         b2:b3:03:d8
