Certificate:
    Data:
        Version: 3 (0x2)
        Serial Number:
            b6:63:af:8f:5d:62:57:a0
    Signature Algorithm: sha1WithRSAEncryption
        Issuer: C=US, ST=Montana, L=Bozeman, O=wolfSSL, OU=Programming, CN=www.wolfssl.com/emailAddress=info@wolfssl.com
        Validity
            Not Before: Jul 11 17:39:44 2014 GMT
            Not After : Apr  6 17:39:44 2017 GMT
        Subject: C=US, ST=Montana, L=Bozeman, O=wolfSSL, OU=Programming, CN=www.wolfssl.com/emailAddress=info@wolfssl.com
        Subject Public Key Info:
            Public Key Algorithm: rsaEncryption
                Public-Key: (2048 bit)
                Modulus:
                    00:c3:03:d1:2b:fe:39:a4:32:45:3b:53:c8:84:2b:
                    2a:7c:74:9a:bd:aa:2a:52:07:47:d6:a6:36:b2:07:
                    32:8e:d0:ba:69:7b:c6:c3:44:9e:d4:81:48:fd:2d:
                    68:a2:8b:67:bb:a1:75:c8:36:2c:4a:d2:1b:f7:8b:
                    ba:cf:0d:f9:ef:ec:f1:81:1e:7b:9b:03:47:9a:bf:
                    65:cc:7f:65:24:69:a6:e8:14:89:5b:e4:34:f7:c5:
                    b0:14:93:f5:67:7b:3a:7a:78:e1:01:56:56:91:a6:
                    13:42:8d:d2:3c:40:9c:4c:ef:d1:86:df:37:51:1b:
                    0c:a1:3b:f5:f1:a3:4a:35:e4:e1:ce:96:df:1b:7e:
                    bf:4e:97:d0:10:e8:a8:08:30:81:af:20:0b:43:14:
                    c5:74:67:b4:32:82:6f:8d:86:c2:88:40:99:36:83:
                    ba:1e:40:72:22:17:d7:52:65:24:73:b0:ce:ef:19:
                    cd:ae:ff:78:6c:7b:c0:12:03:d4:4e:72:0d:50:6d:
                    3b:a3:3b:a3:99:5e:9d:c8:d9:0c:85:b3:d9:8a:d9:
                    54:26:db:6d:fa:ac:bb:ff:25:4c:c4:d1:79:f4:71:
                    d3:86:40:18:13:b0:63:b5:72:4e:30:c4:97:84:86:
                    2d:56:2f:d7:15:f7:7f:c0:ae:f5:fc:5b:e5:fb:a1:
                    ba:d3
                Exponent: 65537 (0x10001)
        X509v3 extensions:
            X509v3 Subject Key Identifier: 
                33:D8:45:66:D7:68:87:18:7E:54:0D:70:27:91:C7:26:D7:85:65:C0
            X509v3 Authority Key Identifier: 
                keyid:33:D8:45:66:D7:68:87:18:7E:54:0D:70:27:91:C7:26:D7:85:65:C0
                DirName:/C=US/ST=Montana/L=Bozeman/O=wolfSSL/OU=Programming/CN=www.wolfssl.com/emailAddress=info@wolfssl.com
                serial:B6:63:AF:8F:5D:62:57:A0

            X509v3 Basic Constraints: 
                CA:TRUE
    Signature Algorithm: sha1WithRSAEncryption
         85:10:90:c5:5d:de:25:8c:f2:57:7b:2d:14:1c:05:f9:71:63:
         40:b0:e3:c1:c1:2e:13:2a:7a:b7:d6:24:58:87:eb:03:fb:0d:
         af:e0:f4:d0:c8:bc:51:36:10:4f:79:cc:4f:66:7d:af:99:cb:
         7b:ce:68:94:c6:36:aa:42:6e:8c:78:5b:b2:85:ca:d1:e1:a8:
         31:d1:81:d9:f9:c1:a3:9e:34:43:ef:0a:79:7d:3e:83:61:fc:
         14:5c:d1:dd:bc:0e:d7:51:b7:71:6e:41:7e:8b:2c:5a:9a:cb:
         77:4b:6a:f5:06:ff:02:af:1e:e6:63:4f:bc:44:d9:3f:56:9e:
         09:9c:43:f9:55:21:32:46:82:09:86:a9:7b:74:1c:9e:5a:2a:
         bf:03:79:91:cb:f2:29:7f:c9:15:82:89:b9:53:cd:7e:07:90:
         a9:5d:76:e1:19:5e:0d:58:b8:59:d5:0d:df:23:ab:6b:63:76:
         19:9e:9c:df:b0:57:49:6c:d0:86:97:c3:6c:3c:fa:e0:56:c2:
         1b:e3:a1:42:1a:58:62:85:9d:74:19:83:08:af:59:90:f8:99:
         bd:67:d3:4a:ea:0e:c9:ca:61:8a:0d:8a:42:cc:90:e9:2e:c2:
         54:73:7f:5e:af:8d:e2:32:cb:45:20:d6:19:4d:5b:77:31:cc:
         0f:2d:c0:7e
-----BEGIN CERTIFICATE-----
MIIEqjCCA5KgAwIBAgIJALZjr49dYlegMA0GCSqGSIb3DQEBBQUAMIGUMQswCQYD
VQQGEwJVUzEQMA4GA1UECAwHTW9udGFuYTEQMA4GA1UEBwwHQm96ZW1hbjEQMA4G
A1UECgwHd29sZlNTTDEUMBIGA1UECwwLUHJvZ3JhbW1pbmcxGDAWBgNVBAMMD3d3
dy53b2xmc3NsLmNvbTEfMB0GCSqGSIb3DQEJARYQaW5mb0B3b2xmc3NsLmNvbTAe
Fw0xNDA3MTExNzM5NDRaFw0xNzA0MDYxNzM5NDRaMIGUMQswCQYDVQQGEwJVUzEQ
MA4GA1UECAwHTW9udGFuYTEQMA4GA1UEBwwHQm96ZW1hbjEQMA4GA1UECgwHd29s
ZlNTTDEUMBIGA1UECwwLUHJvZ3JhbW1pbmcxGDAWBgNVBAMMD3d3dy53b2xmc3Ns
LmNvbTEfMB0GCSqGSIb3DQEJARYQaW5mb0B3b2xmc3NsLmNvbTCCASIwDQYJKoZI
hvcNAQEBBQADggEPADCCAQoCggEBAMMD0Sv+OaQyRTtTyIQrKnx0mr2qKlIHR9am
NrIHMo7Quml7xsNEntSBSP0taKKLZ7uhdcg2LErSG/eLus8N+e/s8YEee5sDR5q/
Zcx/ZSRppugUiVvkNPfFsBST9Wd7Onp44QFWVpGmE0KN0jxAnEzv0YbfN1EbDKE7
9fGjSjXk4c6W3xt+v06X0BDoqAgwga8gC0MUxXRntDKCb42GwohAmTaDuh5AciIX
11JlJHOwzu8Zza7/eGx7wBID1E5yDVBtO6M7o5lencjZDIWz2YrZVCbbbfqsu/8l
TMTRefRx04ZAGBOwY7VyTjDEl4SGLVYv1xX3f8Cu9fxb5fuhutMCAwEAAaOB/DCB
+TAdBgNVHQ4EFgQUM9hFZtdohxh+VA1wJ5HHJteFZcAwgckGA1UdIwSBwTCBvoAU
M9hFZtdohxh+VA1wJ5HHJteFZcChgZqkgZcwgZQxCzAJBgNVBAYTAlVTMRAwDgYD
VQQIDAdNb250YW5hMRAwDgYDVQQHDAdCb3plbWFuMRAwDgYDVQQKDAd3b2xmU1NM
MRQwEgYDVQQLDAtQcm9ncmFtbWluZzEYMBYGA1UEAwwPd3d3LndvbGZzc2wuY29t
MR8wHQYJKoZIhvcNAQkBFhBpbmZvQHdvbGZzc2wuY29tggkAtmOvj11iV6AwDAYD
VR0TBAUwAwEB/zANBgkqhkiG9w0BAQUFAAOCAQEAhRCQxV3eJYzyV3stFBwF+XFj
QLDjwcEuEyp6t9YkWIfrA/sNr+D00Mi8UTYQT3nMT2Z9r5nLe85olMY2qkJujHhb
soXK0eGoMdGB2fnBo540Q+8KeX0+g2H8FFzR3bwO11G3cW5BfossWprLd0tq9Qb/
Aq8e5mNPvETZP1aeCZxD+VUhMkaCCYape3QcnloqvwN5kcvyKX/JFYKJuVPNfgeQ
qV124RleDVi4WdUN3yOra2N2GZ6c37BXSWzQhpfDbDz64FbCG+OhQhpYYoWddBmD
CK9ZkPiZvWfTSuoOycphig2KQsyQ6S7CVHN/Xq+N4jLLRSDWGU1bdzHMDy3Afg==
-----END CERTIFICATE-----
