Certificate:
    Data:
        Version: 3 (0x2)
        Serial Number:
            87:4a:75:be:91:66:d8:3d
        Signature Algorithm: sha1WithRSAEncryption
        Issuer: C=US, ST=Oregon, L=Portland, O=yaSSL, OU=Programming, CN=www.yassl.com/emailAddress=info@yassl.com
        Validity
            Not Before: Oct 24 18:21:55 2011 GMT
            Not After : Jul 20 18:21:55 2014 GMT
        Subject: C=US, ST=Oregon, L=Portland, O=yaSSL, OU=Programming, CN=www.yassl.com/emailAddress=info@yassl.com
        Subject Public Key Info:
            Public Key Algorithm: rsaEncryption
            RSA Public Key: (2048 bit)
                Modulus (2048 bit):
                    00:c3:03:d1:2b:fe:39:a4:32:45:3b:53:c8:84:2b:
                    2a:7c:74:9a:bd:aa:2a:52:07:47:d6:a6:36:b2:07:
                    32:8e:d0:ba:69:7b:c6:c3:44:9e:d4:81:48:fd:2d:
                    68:a2:8b:67:bb:a1:75:c8:36:2c:4a:d2:1b:f7:8b:
                    ba:cf:0d:f9:ef:ec:f1:81:1e:7b:9b:03:47:9a:bf:
                    65:cc:7f:65:24:69:a6:e8:14:89:5b:e4:34:f7:c5:
                    b0:14:93:f5:67:7b:3a:7a:78:e1:01:56:56:91:a6:
                    13:42:8d:d2:3c:40:9c:4c:ef:d1:86:df:37:51:1b:
                    0c:a1:3b:f5:f1:a3:4a:35:e4:e1:ce:96:df:1b:7e:
                    bf:4e:97:d0:10:e8:a8:08:30:81:af:20:0b:43:14:
                    c5:74:67:b4:32:82:6f:8d:86:c2:88:40:99:36:83:
                    ba:1e:40:72:22:17:d7:52:65:24:73:b0:ce:ef:19:
                    cd:ae:ff:78:6c:7b:c0:12:03:d4:4e:72:0d:50:6d:
                    3b:a3:3b:a3:99:5e:9d:c8:d9:0c:85:b3:d9:8a:d9:
                    54:26:db:6d:fa:ac:bb:ff:25:4c:c4:d1:79:f4:71:
                    d3:86:40:18:13:b0:63:b5:72:4e:30:c4:97:84:86:
                    2d:56:2f:d7:15:f7:7f:c0:ae:f5:fc:5b:e5:fb:a1:
                    ba:d3
                Exponent: 65537 (0x10001)
        X509v3 extensions:
            X509v3 Subject Key Identifier: 
                33:D8:45:66:D7:68:87:18:7E:54:0D:70:27:91:C7:26:D7:85:65:C0
            X509v3 Authority Key Identifier: 
                keyid:33:D8:45:66:D7:68:87:18:7E:54:0D:70:27:91:C7:26:D7:85:65:C0
                DirName:/C=US/ST=Oregon/L=Portland/O=yaSSL/OU=Programming/CN=www.yassl.com/emailAddress=info@yassl.com
                serial:87:4A:75:BE:91:66:D8:3D

            X509v3 Basic Constraints: 
                CA:TRUE
    Signature Algorithm: sha1WithRSAEncryption
        1c:7c:42:81:29:9e:21:cf:d0:d8:c1:54:6f:cc:ae:14:09:38:
        ff:68:98:9a:95:53:76:18:7b:e6:30:76:ec:28:0d:75:a7:de:
        e0:cd:8e:d5:55:23:6a:47:2b:4e:8d:fc:7d:06:a3:d8:0f:ad:
        5e:d6:04:c9:00:33:fb:77:27:d3:b5:03:b3:7b:21:74:31:0b:
        4a:af:2d:1a:b3:93:8e:cc:f3:5f:3d:90:3f:cc:e3:55:19:91:
        7b:78:24:2e:4a:09:bb:18:4e:61:2d:9c:c6:0a:a0:34:91:88:
        70:6b:3b:48:47:bc:79:94:a2:a0:4d:32:47:54:c2:a3:dc:2e:
        d2:51:4c:29:39:11:ff:e2:15:5e:58:97:36:f6:e9:06:06:86:
        0e:8d:9d:95:03:72:b2:8b:19:7c:e9:14:6e:a1:88:73:68:58:
        6d:71:5e:c2:d5:d3:13:d2:5f:de:ea:03:be:e2:00:40:e5:ce:
        fd:e6:92:31:57:c3:eb:bb:66:ac:cb:2f:1a:fa:e0:62:a2:47:
        f4:93:43:2a:4b:6c:5e:0a:2f:f9:e7:e6:4a:63:86:b0:ac:2a:
        a1:eb:b4:5b:67:cd:32:e4:b6:11:4b:9a:72:66:0d:a2:4a:76:
        8f:fe:22:bc:83:fd:db:b7:d5:a9:ee:05:c9:b1:71:7e:1b:2b:
        e1:e3:af:c0
-----BEGIN CERTIFICATE-----
MIIEmDCCA4CgAwIBAgIJAIdKdb6RZtg9MA0GCSqGSIb3DQEBBQUAMIGOMQswCQYD
VQQGEwJVUzEPMA0GA1UECBMGT3JlZ29uMREwDwYDVQQHEwhQb3J0bGFuZDEOMAwG
A1UEChMFeWFTU0wxFDASBgNVBAsTC1Byb2dyYW1taW5nMRYwFAYDVQQDEw13d3cu
eWFzc2wuY29tMR0wGwYJKoZIhvcNAQkBFg5pbmZvQHlhc3NsLmNvbTAeFw0xMTEw
MjQxODIxNTVaFw0xNDA3MjAxODIxNTVaMIGOMQswCQYDVQQGEwJVUzEPMA0GA1UE
CBMGT3JlZ29uMREwDwYDVQQHEwhQb3J0bGFuZDEOMAwGA1UEChMFeWFTU0wxFDAS
BgNVBAsTC1Byb2dyYW1taW5nMRYwFAYDVQQDEw13d3cueWFzc2wuY29tMR0wGwYJ
KoZIhvcNAQkBFg5pbmZvQHlhc3NsLmNvbTCCASIwDQYJKoZIhvcNAQEBBQADggEP
ADCCAQoCggEBAMMD0Sv+OaQyRTtTyIQrKnx0mr2qKlIHR9amNrIHMo7Quml7xsNE
ntSBSP0taKKLZ7uhdcg2LErSG/eLus8N+e/s8YEee5sDR5q/Zcx/ZSRppugUiVvk
NPfFsBST9Wd7Onp44QFWVpGmE0KN0jxAnEzv0YbfN1EbDKE79fGjSjXk4c6W3xt+
v06X0BDoqAgwga8gC0MUxXRntDKCb42GwohAmTaDuh5AciIX11JlJHOwzu8Zza7/
eGx7wBID1E5yDVBtO6M7o5lencjZDIWz2YrZVCbbbfqsu/8lTMTRefRx04ZAGBOw
Y7VyTjDEl4SGLVYv1xX3f8Cu9fxb5fuhutMCAwEAAaOB9jCB8zAdBgNVHQ4EFgQU
M9hFZtdohxh+VA1wJ5HHJteFZcAwgcMGA1UdIwSBuzCBuIAUM9hFZtdohxh+VA1w
J5HHJteFZcChgZSkgZEwgY4xCzAJBgNVBAYTAlVTMQ8wDQYDVQQIEwZPcmVnb24x
ETAPBgNVBAcTCFBvcnRsYW5kMQ4wDAYDVQQKEwV5YVNTTDEUMBIGA1UECxMLUHJv
Z3JhbW1pbmcxFjAUBgNVBAMTDXd3dy55YXNzbC5jb20xHTAbBgkqhkiG9w0BCQEW
DmluZm9AeWFzc2wuY29tggkAh0p1vpFm2D0wDAYDVR0TBAUwAwEB/zANBgkqhkiG
9w0BAQUFAAOCAQEAHHxCgSmeIc/Q2MFUb8yuFAk4/2iYmpVTdhh75jB27CgNdafe
4M2O1VUjakcrTo38fQaj2A+tXtYEyQAz+3cn07UDs3shdDELSq8tGrOTjszzXz2Q
P8zjVRmRe3gkLkoJuxhOYS2cxgqgNJGIcGs7SEe8eZSioE0yR1TCo9wu0lFMKTkR
/+IVXliXNvbpBgaGDo2dlQNysosZfOkUbqGIc2hYbXFewtXTE9Jf3uoDvuIAQOXO
/eaSMVfD67tmrMsvGvrgYqJH9JNDKktsXgov+efmSmOGsKwqoeu0W2fNMuS2EUua
cmYNokp2j/4ivIP927fVqe4FybFxfhsr4eOvwA==
-----END CERTIFICATE-----
