Certificate:
    Data:
        Version: 3 (0x2)
        Serial Number: 0 (0x0)
        Signature Algorithm: md5WithRSAEncryption
        Issuer: C=US, ST=Oregon, L=Portland, O=yaSSL, CN=www.yassl.com/emailAddress=info@yassl.com
        Validity
            Not Before: Mar  7 03:00:31 2005 GMT
            Not After : Apr  1 03:00:31 2046 GMT
        Subject: C=US, ST=Oregon, L=Portland, O=yaSSL, CN=www.yassl.com/emailAddress=info@yassl.com
        Subject Public Key Info:
            Public Key Algorithm: rsaEncryption
            RSA Public Key: (512 bit)
                Modulus (512 bit):
                    00:cd:1f:78:47:f8:b8:d6:08:bf:bd:7c:23:61:86:
                    36:28:ac:ee:3c:a8:9a:94:e6:d5:26:e8:71:50:b2:
                    26:8b:1c:1e:3f:75:b2:d3:b3:67:95:0c:fd:76:28:
                    65:d5:ce:12:82:9e:06:00:a2:09:dd:ce:3a:26:dd:
                    46:2a:a0:45:71
                Exponent: 65537 (0x10001)
        X509v3 extensions:
            X509v3 Subject Key Identifier: 
                AE:25:5E:FA:4D:A3:5B:2B:87:DE:F1:2A:F5:42:C0:FF:CE:B5:B4:AD
            X509v3 Authority Key Identifier: 
                keyid:AE:25:5E:FA:4D:A3:5B:2B:87:DE:F1:2A:F5:42:C0:FF:CE:B5:B4:AD
                DirName:/C=US/ST=Oregon/L=Portland/O=yaSSL/CN=www.yassl.com/emailAddress=info@yassl.com
                serial:00

            X509v3 Basic Constraints: 
                CA:TRUE
    Signature Algorithm: md5WithRSAEncryption
        59:19:ae:1b:4e:65:9e:ca:f1:b8:3d:ff:c7:5e:15:86:10:97:
        8c:3e:22:32:ab:4e:75:a7:70:83:f2:fb:2f:af:fe:26:28:e9:
        4f:d4:c9:49:7c:6f:51:7e:2a:ff:a0:5b:25:45:2e:66:d9:0d:
        92:94:e5:b8:60:c6:67:1a:f3:03
-----BEGIN CERTIFICATE-----
MIICtzCCAmGgAwIBAgIBADANBgkqhkiG9w0BAQQFADB4MQswCQYDVQQGEwJVUzEP
MA0GA1UECBMGT3JlZ29uMREwDwYDVQQHEwhQb3J0bGFuZDEOMAwGA1UEChMFeWFT
U0wxFjAUBgNVBAMTDXd3dy55YXNzbC5jb20xHTAbBgkqhkiG9w0BCQEWDmluZm9A
eWFzc2wuY29tMB4XDTA1MDMwNzAzMDAzMVoXDTQ2MDQwMTAzMDAzMVoweDELMAkG
A1UEBhMCVVMxDzANBgNVBAgTBk9yZWdvbjERMA8GA1UEBxMIUG9ydGxhbmQxDjAM
BgNVBAoTBXlhU1NMMRYwFAYDVQQDEw13d3cueWFzc2wuY29tMR0wGwYJKoZIhvcN
AQkBFg5pbmZvQHlhc3NsLmNvbTBcMA0GCSqGSIb3DQEBAQUAA0sAMEgCQQDNH3hH
+LjWCL+9fCNhhjYorO48qJqU5tUm6HFQsiaLHB4/dbLTs2eVDP12KGXVzhKCngYA
ogndzjom3UYqoEVxAgMBAAGjgdUwgdIwHQYDVR0OBBYEFK4lXvpNo1srh97xKvVC
wP/OtbStMIGiBgNVHSMEgZowgZeAFK4lXvpNo1srh97xKvVCwP/OtbStoXykejB4
MQswCQYDVQQGEwJVUzEPMA0GA1UECBMGT3JlZ29uMREwDwYDVQQHEwhQb3J0bGFu
ZDEOMAwGA1UEChMFeWFTU0wxFjAUBgNVBAMTDXd3dy55YXNzbC5jb20xHTAbBgkq
hkiG9w0BCQEWDmluZm9AeWFzc2wuY29tggEAMAwGA1UdEwQFMAMBAf8wDQYJKoZI
hvcNAQEEBQADQQBZGa4bTmWeyvG4Pf/HXhWGEJeMPiIyq051p3CD8vsvr/4mKOlP
1MlJfG9Rfir/oFslRS5m2Q2SlOW4YMZnGvMD
-----END CERTIFICATE-----
