Certificate:
    Data:
        Version: 3 (0x2)
        Serial Number: 0 (0x0)
        Signature Algorithm: md5WithRSAEncryption
        Issuer: C=US, ST=Oregon, L=Portland, O=yaSSL, CN=www.yassl.com/emailAddress=info@yassl.com
        Validity
            Not Before: Jan 18 19:33:15 2005 GMT
            Not After : Oct 15 19:33:15 2007 GMT
        Subject: C=US, ST=Oregon, L=Portland, O=yaSSL, CN=www.yassl.com/emailAddress=info@yassl.com
        Subject Public Key Info:
            Public Key Algorithm: rsaEncryption
            RSA Public Key: (512 bit)
                Modulus (512 bit):
                    00:cd:1f:78:47:f8:b8:d6:08:bf:bd:7c:23:61:86:
                    36:28:ac:ee:3c:a8:9a:94:e6:d5:26:e8:71:50:b2:
                    26:8b:1c:1e:3f:75:b2:d3:b3:67:95:0c:fd:76:28:
                    65:d5:ce:12:82:9e:06:00:a2:09:dd:ce:3a:26:dd:
                    46:2a:a0:45:71
                Exponent: 65537 (0x10001)
        X509v3 extensions:
            X509v3 Subject Key Identifier: 
                AE:25:5E:FA:4D:A3:5B:2B:87:DE:F1:2A:F5:42:C0:FF:CE:B5:B4:AD
            X509v3 Authority Key Identifier: 
                keyid:AE:25:5E:FA:4D:A3:5B:2B:87:DE:F1:2A:F5:42:C0:FF:CE:B5:B4:AD
                DirName:/C=US/ST=Oregon/L=Portland/O=yaSSL/CN=www.yassl.com/emailAddress=info@yassl.com
                serial:00

            X509v3 Basic Constraints: 
                CA:TRUE
    Signature Algorithm: md5WithRSAEncryption
        c5:82:26:0c:1f:61:01:14:b0:ce:18:99:64:91:0e:f1:f8:90:
        3e:a3:0e:be:38:7c:97:ba:05:c9:2a:dc:dd:62:2d:12:61:79:
        7a:86:b1:97:5d:1e:e8:f7:e8:32:34:f7:8f:b1:08:3d:13:71:
        a6:3c:15:91:85:12:35:6e:78:87
-----BEGIN CERTIFICATE-----
MIICtzCCAmGgAwIBAgIBADANBgkqhkiG9w0BAQQFADB4MQswCQYDVQQGEwJVUzEP
MA0GA1UECBMGT3JlZ29uMREwDwYDVQQHEwhQb3J0bGFuZDEOMAwGA1UEChMFeWFT
U0wxFjAUBgNVBAMTDXd3dy55YXNzbC5jb20xHTAbBgkqhkiG9w0BCQEWDmluZm9A
eWFzc2wuY29tMB4XDTA1MDExODE5MzMxNVoXDTA3MTAxNTE5MzMxNVoweDELMAkG
A1UEBhMCVVMxDzANBgNVBAgTBk9yZWdvbjERMA8GA1UEBxMIUG9ydGxhbmQxDjAM
BgNVBAoTBXlhU1NMMRYwFAYDVQQDEw13d3cueWFzc2wuY29tMR0wGwYJKoZIhvcN
AQkBFg5pbmZvQHlhc3NsLmNvbTBcMA0GCSqGSIb3DQEBAQUAA0sAMEgCQQDNH3hH
+LjWCL+9fCNhhjYorO48qJqU5tUm6HFQsiaLHB4/dbLTs2eVDP12KGXVzhKCngYA
ogndzjom3UYqoEVxAgMBAAGjgdUwgdIwHQYDVR0OBBYEFK4lXvpNo1srh97xKvVC
wP/OtbStMIGiBgNVHSMEgZowgZeAFK4lXvpNo1srh97xKvVCwP/OtbStoXykejB4
MQswCQYDVQQGEwJVUzEPMA0GA1UECBMGT3JlZ29uMREwDwYDVQQHEwhQb3J0bGFu
ZDEOMAwGA1UEChMFeWFTU0wxFjAUBgNVBAMTDXd3dy55YXNzbC5jb20xHTAbBgkq
hkiG9w0BCQEWDmluZm9AeWFzc2wuY29tggEAMAwGA1UdEwQFMAMBAf8wDQYJKoZI
hvcNAQEEBQADQQDFgiYMH2EBFLDOGJlkkQ7x+JA+ow6+OHyXugXJKtzdYi0SYXl6
hrGXXR7o9+gyNPePsQg9E3GmPBWRhRI1bniH
-----END CERTIFICATE-----
