Certificate:
    Data:
        Version: 3 (0x2)
        Serial Number:
            c5:d7:6c:11:36:f0:35:e1
        Signature Algorithm: md5WithRSAEncryption
        Issuer: C=US, ST=Oregon, L=Portland, O=yaSSL, OU=programming, CN=www.yassl.com/emailAddress=info@yassl.com
        Validity
            Not Before: Jun 30 18:39:39 2010 GMT
            Not After : Mar 26 18:39:40 2013 GMT
        Subject: C=US, ST=Oregon, L=Portland, O=yaSSL, OU=programming, CN=www.yassl.com/emailAddress=info@yassl.com
        Subject Public Key Info:
            Public Key Algorithm: rsaEncryption
            RSA Public Key: (512 bit)
                Modulus (512 bit):
                    00:bd:51:4a:14:fd:6a:19:84:0c:33:38:fc:27:32:
                    9c:97:0b:fc:a4:18:60:69:4e:d9:d8:78:50:0b:e9:
                    20:5d:d6:1d:70:1c:0c:24:9f:23:82:cc:3a:01:d5:
                    97:17:b2:73:6c:86:cf:b5:f1:e5:ce:68:0c:d9:a2:
                    12:39:7c:f2:53
                Exponent: 65537 (0x10001)
        X509v3 extensions:
            X509v3 Subject Key Identifier: 
                5C:F7:29:21:69:7A:09:78:9E:7B:CD:53:42:02:EC:CE:29:0D:11:DF
            X509v3 Authority Key Identifier: 
                keyid:5C:F7:29:21:69:7A:09:78:9E:7B:CD:53:42:02:EC:CE:29:0D:11:DF
                DirName:/C=US/ST=Oregon/L=Portland/O=yaSSL/OU=programming/CN=www.yassl.com/emailAddress=info@yassl.com
                serial:C5:D7:6C:11:36:F0:35:E1

            X509v3 Basic Constraints: 
                CA:TRUE
    Signature Algorithm: md5WithRSAEncryption
        b4:a5:f1:71:26:4d:b9:ff:54:f3:09:1f:ac:e1:19:59:e5:ec:
        57:e3:f1:0b:b2:8f:f3:29:eb:6b:c6:fa:27:33:3e:91:d0:77:
        43:c9:ce:1e:0f:71:07:a9:f7:26:e0:7e:ff:30:7d:52:0a:e1:
        80:48:46:bb:99:e9:d9:77:ce:75
-----BEGIN CERTIFICATE-----
MIIDDjCCArigAwIBAgIJAMXXbBE28DXhMA0GCSqGSIb3DQEBBAUAMIGOMQswCQYD
VQQGEwJVUzEPMA0GA1UECBMGT3JlZ29uMREwDwYDVQQHEwhQb3J0bGFuZDEOMAwG
A1UEChMFeWFTU0wxFDASBgNVBAsTC3Byb2dyYW1taW5nMRYwFAYDVQQDEw13d3cu
eWFzc2wuY29tMR0wGwYJKoZIhvcNAQkBFg5pbmZvQHlhc3NsLmNvbTAeFw0xMDA2
MzAxODM5MzlaFw0xMzAzMjYxODM5NDBaMIGOMQswCQYDVQQGEwJVUzEPMA0GA1UE
CBMGT3JlZ29uMREwDwYDVQQHEwhQb3J0bGFuZDEOMAwGA1UEChMFeWFTU0wxFDAS
BgNVBAsTC3Byb2dyYW1taW5nMRYwFAYDVQQDEw13d3cueWFzc2wuY29tMR0wGwYJ
KoZIhvcNAQkBFg5pbmZvQHlhc3NsLmNvbTBcMA0GCSqGSIb3DQEBAQUAA0sAMEgC
QQC9UUoU/WoZhAwzOPwnMpyXC/ykGGBpTtnYeFAL6SBd1h1wHAwknyOCzDoB1ZcX
snNshs+18eXOaAzZohI5fPJTAgMBAAGjgfYwgfMwHQYDVR0OBBYEFFz3KSFpegl4
nnvNU0IC7M4pDRHfMIHDBgNVHSMEgbswgbiAFFz3KSFpegl4nnvNU0IC7M4pDRHf
oYGUpIGRMIGOMQswCQYDVQQGEwJVUzEPMA0GA1UECBMGT3JlZ29uMREwDwYDVQQH
EwhQb3J0bGFuZDEOMAwGA1UEChMFeWFTU0wxFDASBgNVBAsTC3Byb2dyYW1taW5n
MRYwFAYDVQQDEw13d3cueWFzc2wuY29tMR0wGwYJKoZIhvcNAQkBFg5pbmZvQHlh
c3NsLmNvbYIJAMXXbBE28DXhMAwGA1UdEwQFMAMBAf8wDQYJKoZIhvcNAQEEBQAD
QQC0pfFxJk25/1TzCR+s4RlZ5exX4/ELso/zKetrxvonMz6R0HdDyc4eD3EHqfcm
4H7/MH1SCuGASEa7menZd851
-----END CERTIFICATE-----
