Certificate:
    Data:
        Version: 3 (0x2)
        Serial Number:
            b9:bc:90:ed:ad:aa:0a:8c
    Signature Algorithm: sha256WithRSAEncryption
        Issuer: C=US, ST=Montana, L=Bozeman, O=wolfSSL_2048, OU=Programming-2048, CN=www.wolfssl.com/emailAddress=info@wolfssl.com
        Validity
            Not Before: Aug 11 20:07:37 2016 GMT
            Not After : May  8 20:07:37 2019 GMT
        Subject: C=US, ST=Montana, L=Bozeman, O=wolfSSL_2048, OU=Programming-2048, CN=www.wolfssl.com/emailAddress=info@wolfssl.com
        Subject Public Key Info:
            Public Key Algorithm: rsaEncryption
                Public-Key: (2048 bit)
                Modulus:
                    00:c3:03:d1:2b:fe:39:a4:32:45:3b:53:c8:84:2b:
                    2a:7c:74:9a:bd:aa:2a:52:07:47:d6:a6:36:b2:07:
                    32:8e:d0:ba:69:7b:c6:c3:44:9e:d4:81:48:fd:2d:
                    68:a2:8b:67:bb:a1:75:c8:36:2c:4a:d2:1b:f7:8b:
                    ba:cf:0d:f9:ef:ec:f1:81:1e:7b:9b:03:47:9a:bf:
                    65:cc:7f:65:24:69:a6:e8:14:89:5b:e4:34:f7:c5:
                    b0:14:93:f5:67:7b:3a:7a:78:e1:01:56:56:91:a6:
                    13:42:8d:d2:3c:40:9c:4c:ef:d1:86:df:37:51:1b:
                    0c:a1:3b:f5:f1:a3:4a:35:e4:e1:ce:96:df:1b:7e:
                    bf:4e:97:d0:10:e8:a8:08:30:81:af:20:0b:43:14:
                    c5:74:67:b4:32:82:6f:8d:86:c2:88:40:99:36:83:
                    ba:1e:40:72:22:17:d7:52:65:24:73:b0:ce:ef:19:
                    cd:ae:ff:78:6c:7b:c0:12:03:d4:4e:72:0d:50:6d:
                    3b:a3:3b:a3:99:5e:9d:c8:d9:0c:85:b3:d9:8a:d9:
                    54:26:db:6d:fa:ac:bb:ff:25:4c:c4:d1:79:f4:71:
                    d3:86:40:18:13:b0:63:b5:72:4e:30:c4:97:84:86:
                    2d:56:2f:d7:15:f7:7f:c0:ae:f5:fc:5b:e5:fb:a1:
                    ba:d3
                Exponent: 65537 (0x10001)
        X509v3 extensions:
            X509v3 Subject Key Identifier: 
                33:D8:45:66:D7:68:87:18:7E:54:0D:70:27:91:C7:26:D7:85:65:C0
            X509v3 Authority Key Identifier: 
                keyid:33:D8:45:66:D7:68:87:18:7E:54:0D:70:27:91:C7:26:D7:85:65:C0
                DirName:/C=US/ST=Montana/L=Bozeman/O=wolfSSL_2048/OU=Programming-2048/CN=www.wolfssl.com/emailAddress=info@wolfssl.com
                serial:B9:BC:90:ED:AD:AA:0A:8C

            X509v3 Basic Constraints: 
                CA:TRUE
    Signature Algorithm: sha256WithRSAEncryption
         33:85:08:b4:58:0e:a2:00:03:74:de:77:fb:d1:2b:76:9c:97:
         90:20:21:a2:e8:2e:22:50:26:04:76:ba:5b:47:79:e5:52:f7:
         c4:0d:79:ff:62:3f:05:7c:c3:08:6c:e0:b7:81:d0:ce:c6:c9:
         46:b9:8e:4b:5f:56:79:4b:13:b6:d1:6b:66:4b:ce:00:0d:e3:
         76:5e:fb:cb:b5:5d:12:31:05:f1:bb:39:f6:86:90:ca:92:56:
         a4:a0:75:21:b6:1d:4c:96:c3:45:eb:5a:91:94:32:d3:59:b8:
         c9:73:1f:03:a9:81:63:e0:43:c0:1e:c8:65:be:3b:a7:53:c3:
         44:ff:b3:fb:47:84:a8:b6:9d:00:d5:6b:ae:87:f8:bb:35:b2:
         6c:66:0b:11:ee:6f:fe:12:ed:59:79:f1:3e:f2:d3:61:27:8b:
         95:7e:99:75:8d:a4:9f:34:85:f1:25:4d:48:1e:9b:6b:70:f6:
         66:cc:56:b1:a3:02:52:8a:7c:aa:af:07:da:97:c6:0c:a5:8f:
         ed:cb:f5:d8:04:5d:97:0a:5d:5a:2b:49:f5:bd:93:e5:23:9b:
         99:b5:0c:ff:0c:7e:38:82:b2:6e:ab:8a:c9:a7:45:ab:d6:d7:
         93:35:70:07:7e:c8:3d:a5:fe:33:8f:d9:85:c0:c7:5a:02:e4:
         7c:d6:35:9e
-----BEGIN CERTIFICATE-----
MIIEyjCCA7KgAwIBAgIJALm8kO2tqgqMMA0GCSqGSIb3DQEBCwUAMIGeMQswCQYD
VQQGEwJVUzEQMA4GA1UECAwHTW9udGFuYTEQMA4GA1UEBwwHQm96ZW1hbjEVMBMG
A1UECgwMd29sZlNTTF8yMDQ4MRkwFwYDVQQLDBBQcm9ncmFtbWluZy0yMDQ4MRgw
FgYDVQQDDA93d3cud29sZnNzbC5jb20xHzAdBgkqhkiG9w0BCQEWEGluZm9Ad29s
ZnNzbC5jb20wHhcNMTYwODExMjAwNzM3WhcNMTkwNTA4MjAwNzM3WjCBnjELMAkG
A1UEBhMCVVMxEDAOBgNVBAgMB01vbnRhbmExEDAOBgNVBAcMB0JvemVtYW4xFTAT
BgNVBAoMDHdvbGZTU0xfMjA0ODEZMBcGA1UECwwQUHJvZ3JhbW1pbmctMjA0ODEY
MBYGA1UEAwwPd3d3LndvbGZzc2wuY29tMR8wHQYJKoZIhvcNAQkBFhBpbmZvQHdv
bGZzc2wuY29tMIIBIjANBgkqhkiG9w0BAQEFAAOCAQ8AMIIBCgKCAQEAwwPRK/45
pDJFO1PIhCsqfHSavaoqUgdH1qY2sgcyjtC6aXvGw0Se1IFI/S1oootnu6F1yDYs
StIb94u6zw357+zxgR57mwNHmr9lzH9lJGmm6BSJW+Q098WwFJP1Z3s6enjhAVZW
kaYTQo3SPECcTO/Rht83URsMoTv18aNKNeThzpbfG36/TpfQEOioCDCBryALQxTF
dGe0MoJvjYbCiECZNoO6HkByIhfXUmUkc7DO7xnNrv94bHvAEgPUTnINUG07ozuj
mV6dyNkMhbPZitlUJttt+qy7/yVMxNF59HHThkAYE7BjtXJOMMSXhIYtVi/XFfd/
wK71/Fvl+6G60wIDAQABo4IBBzCCAQMwHQYDVR0OBBYEFDPYRWbXaIcYflQNcCeR
xybXhWXAMIHTBgNVHSMEgcswgciAFDPYRWbXaIcYflQNcCeRxybXhWXAoYGkpIGh
MIGeMQswCQYDVQQGEwJVUzEQMA4GA1UECAwHTW9udGFuYTEQMA4GA1UEBwwHQm96
ZW1hbjEVMBMGA1UECgwMd29sZlNTTF8yMDQ4MRkwFwYDVQQLDBBQcm9ncmFtbWlu
Zy0yMDQ4MRgwFgYDVQQDDA93d3cud29sZnNzbC5jb20xHzAdBgkqhkiG9w0BCQEW
EGluZm9Ad29sZnNzbC5jb22CCQC5vJDtraoKjDAMBgNVHRMEBTADAQH/MA0GCSqG
SIb3DQEBCwUAA4IBAQAzhQi0WA6iAAN03nf70St2nJeQICGi6C4iUCYEdrpbR3nl
UvfEDXn/Yj8FfMMIbOC3gdDOxslGuY5LX1Z5SxO20WtmS84ADeN2XvvLtV0SMQXx
uzn2hpDKklakoHUhth1MlsNF61qRlDLTWbjJcx8DqYFj4EPAHshlvjunU8NE/7P7
R4Sotp0A1Wuuh/i7NbJsZgsR7m/+Eu1ZefE+8tNhJ4uVfpl1jaSfNIXxJU1IHptr
cPZmzFaxowJSinyqrwfal8YMpY/ty/XYBF2XCl1aK0n1vZPlI5uZtQz/DH44grJu
q4rJp0Wr1teTNXAHfsg9pf4zj9mFwMdaAuR81jWe
-----END CERTIFICATE-----
