Certificate:
    Data:
        Version: 3 (0x2)
        Serial Number: 0 (0x0)
        Signature Algorithm: dsaWithSHA1
        Issuer: C=US, ST=Oregon, L=Portland, O=yaSSL DSA, CN=yaSSL DSA/emailAddress=info@yassl.com
        Validity
            Not Before: Mar  7 03:22:00 2005 GMT
            Not After : Apr  1 03:22:00 2046 GMT
        Subject: C=US, ST=Oregon, L=Portland, O=yaSSL DSA, CN=yaSSL DSA/emailAddress=info@yassl.com
        Subject Public Key Info:
            Public Key Algorithm: dsaEncryption
            DSA Public Key:
                pub: 
                    04:84:a0:26:31:72:0c:e8:4f:5d:53:17:62:b1:80:
                    ca:c0:16:5f:c3:1e:ea:c5:d9:98:38:f9:be:56:53:
                    47:68:ce:08:22:57:1c:bb:0d:77:91:cf:5b:36:ed:
                    f3:24:82:90:8a:cd:90:7c:db:77:f9:17:2d:73:73:
                    ef:bb:b9:82
                P:   
                    00:99:29:69:80:c9:3c:98:68:45:a9:82:fe:67:eb:
                    95:88:c5:b4:0c:d6:26:45:95:19:2c:a0:20:5b:7e:
                    df:69:e9:dc:c3:0f:f3:61:0a:25:9b:f2:21:01:6a:
                    cd:aa:8c:37:e7:ca:66:db:56:f4:0f:7d:7a:d1:18:
                    b9:42:fd:1b:11
                Q:   
                    00:ad:25:29:ab:0a:9f:09:1c:c1:ad:03:20:76:7f:
                    a6:b7:dd:4d:03:09
                G:   
                    12:88:99:da:e7:d0:0b:93:9b:e6:ee:3c:21:7f:9c:
                    b3:b4:8d:a5:8c:e2:37:80:3f:17:d1:81:4f:bd:f0:
                    71:b6:32:08:54:dd:bf:01:e2:b3:77:06:64:75:8a:
                    04:d6:79:39:b1:02:03:03:c6:06:74:e5:90:05:0a:
                    10:46:19:31
        X509v3 extensions:
            X509v3 Subject Key Identifier: 
                BE:F9:8C:5D:D6:1C:B4:EE:81:DD:36:56:0A:21:E4:61:44:73:E9:E2
            X509v3 Authority Key Identifier: 
                keyid:BE:F9:8C:5D:D6:1C:B4:EE:81:DD:36:56:0A:21:E4:61:44:73:E9:E2
                DirName:/C=US/ST=Oregon/L=Portland/O=yaSSL DSA/CN=yaSSL DSA/emailAddress=info@yassl.com
                serial:00

            X509v3 Basic Constraints: 
                CA:TRUE
    Signature Algorithm: dsaWithSHA1
        30:2c:02:14:7e:5e:94:fc:7f:ca:81:ab:b3:32:f7:21:83:48:
        48:5f:0a:f1:13:ca:02:14:73:54:32:14:51:22:bf:0b:ec:d7:
        6a:6a:fa:a7:1d:46:b4:c2:a3:b5
-----BEGIN CERTIFICATE-----
MIIDMjCCAvKgAwIBAgIBADAJBgcqhkjOOAQDMHgxCzAJBgNVBAYTAlVTMQ8wDQYD
VQQIEwZPcmVnb24xETAPBgNVBAcTCFBvcnRsYW5kMRIwEAYDVQQKEwl5YVNTTCBE
U0ExEjAQBgNVBAMTCXlhU1NMIERTQTEdMBsGCSqGSIb3DQEJARYOaW5mb0B5YXNz
bC5jb20wHhcNMDUwMzA3MDMyMjAwWhcNNDYwNDAxMDMyMjAwWjB4MQswCQYDVQQG
EwJVUzEPMA0GA1UECBMGT3JlZ29uMREwDwYDVQQHEwhQb3J0bGFuZDESMBAGA1UE
ChMJeWFTU0wgRFNBMRIwEAYDVQQDEwl5YVNTTCBEU0ExHTAbBgkqhkiG9w0BCQEW
DmluZm9AeWFzc2wuY29tMIHwMIGoBgcqhkjOOAQBMIGcAkEAmSlpgMk8mGhFqYL+
Z+uViMW0DNYmRZUZLKAgW37faencww/zYQolm/IhAWrNqow358pm21b0D3160Ri5
Qv0bEQIVAK0lKasKnwkcwa0DIHZ/prfdTQMJAkASiJna59ALk5vm7jwhf5yztI2l
jOI3gD8X0YFPvfBxtjIIVN2/AeKzdwZkdYoE1nk5sQIDA8YGdOWQBQoQRhkxA0MA
AkAEhKAmMXIM6E9dUxdisYDKwBZfwx7qxdmYOPm+VlNHaM4IIlccuw13kc9bNu3z
JIKQis2QfNt3+Rctc3Pvu7mCo4HVMIHSMB0GA1UdDgQWBBS++Yxd1hy07oHdNlYK
IeRhRHPp4jCBogYDVR0jBIGaMIGXgBS++Yxd1hy07oHdNlYKIeRhRHPp4qF8pHow
eDELMAkGA1UEBhMCVVMxDzANBgNVBAgTBk9yZWdvbjERMA8GA1UEBxMIUG9ydGxh
bmQxEjAQBgNVBAoTCXlhU1NMIERTQTESMBAGA1UEAxMJeWFTU0wgRFNBMR0wGwYJ
KoZIhvcNAQkBFg5pbmZvQHlhc3NsLmNvbYIBADAMBgNVHRMEBTADAQH/MAkGByqG
SM44BAMDLwAwLAIUfl6U/H/KgauzMvchg0hIXwrxE8oCFHNUMhRRIr8L7Ndqavqn
HUa0wqO1
-----END CERTIFICATE-----
