Certificate:
    Data:
        Version: 3 (0x2)
        Serial Number:
            ce:df:23:31:64:b4:13:da
        Signature Algorithm: dsaWithSHA1
        Issuer: C=US, ST=Oregon, L=Portland, O=yaSSL, OU=testing, CN=www.yassl.com/emailAddress=info@yassl.com
        Validity
            Not Before: Jun 30 18:56:38 2010 GMT
            Not After : Mar 26 18:56:39 2013 GMT
        Subject: C=US, ST=Oregon, L=Portland, O=yaSSL, OU=testing, CN=www.yassl.com/emailAddress=info@yassl.com
        Subject Public Key Info:
            Public Key Algorithm: dsaEncryption
            DSA Public Key:
                pub: 
                    04:84:a0:26:31:72:0c:e8:4f:5d:53:17:62:b1:80:
                    ca:c0:16:5f:c3:1e:ea:c5:d9:98:38:f9:be:56:53:
                    47:68:ce:08:22:57:1c:bb:0d:77:91:cf:5b:36:ed:
                    f3:24:82:90:8a:cd:90:7c:db:77:f9:17:2d:73:73:
                    ef:bb:b9:82
                P:   
                    00:99:29:69:80:c9:3c:98:68:45:a9:82:fe:67:eb:
                    95:88:c5:b4:0c:d6:26:45:95:19:2c:a0:20:5b:7e:
                    df:69:e9:dc:c3:0f:f3:61:0a:25:9b:f2:21:01:6a:
                    cd:aa:8c:37:e7:ca:66:db:56:f4:0f:7d:7a:d1:18:
                    b9:42:fd:1b:11
                Q:   
                    00:ad:25:29:ab:0a:9f:09:1c:c1:ad:03:20:76:7f:
                    a6:b7:dd:4d:03:09
                G:   
                    12:88:99:da:e7:d0:0b:93:9b:e6:ee:3c:21:7f:9c:
                    b3:b4:8d:a5:8c:e2:37:80:3f:17:d1:81:4f:bd:f0:
                    71:b6:32:08:54:dd:bf:01:e2:b3:77:06:64:75:8a:
                    04:d6:79:39:b1:02:03:03:c6:06:74:e5:90:05:0a:
                    10:46:19:31
        X509v3 extensions:
            X509v3 Subject Key Identifier: 
                BE:F9:8C:5D:D6:1C:B4:EE:81:DD:36:56:0A:21:E4:61:44:73:E9:E2
            X509v3 Authority Key Identifier: 
                keyid:BE:F9:8C:5D:D6:1C:B4:EE:81:DD:36:56:0A:21:E4:61:44:73:E9:E2
                DirName:/C=US/ST=Oregon/L=Portland/O=yaSSL/OU=testing/CN=www.yassl.com/emailAddress=info@yassl.com
                serial:CE:DF:23:31:64:B4:13:DA

            X509v3 Basic Constraints: 
                CA:TRUE
    Signature Algorithm: dsaWithSHA1
        30:2d:02:14:00:a3:21:20:34:6a:2c:f9:fb:76:d7:20:c9:c0:
        35:1b:64:9a:c2:83:02:15:00:a4:59:ac:6d:da:85:48:ff:f5:
        0d:49:72:c8:cd:91:fc:ec:2f:5c:63
-----BEGIN CERTIFICATE-----
MIIDfjCCAz2gAwIBAgIJAM7fIzFktBPaMAkGByqGSM44BAMwgYoxCzAJBgNVBAYT
AlVTMQ8wDQYDVQQIEwZPcmVnb24xETAPBgNVBAcTCFBvcnRsYW5kMQ4wDAYDVQQK
EwV5YVNTTDEQMA4GA1UECxMHdGVzdGluZzEWMBQGA1UEAxMNd3d3Lnlhc3NsLmNv
bTEdMBsGCSqGSIb3DQEJARYOaW5mb0B5YXNzbC5jb20wHhcNMTAwNjMwMTg1NjM4
WhcNMTMwMzI2MTg1NjM5WjCBijELMAkGA1UEBhMCVVMxDzANBgNVBAgTBk9yZWdv
bjERMA8GA1UEBxMIUG9ydGxhbmQxDjAMBgNVBAoTBXlhU1NMMRAwDgYDVQQLEwd0
ZXN0aW5nMRYwFAYDVQQDEw13d3cueWFzc2wuY29tMR0wGwYJKoZIhvcNAQkBFg5p
bmZvQHlhc3NsLmNvbTCB8DCBqAYHKoZIzjgEATCBnAJBAJkpaYDJPJhoRamC/mfr
lYjFtAzWJkWVGSygIFt+32np3MMP82EKJZvyIQFqzaqMN+fKZttW9A99etEYuUL9
GxECFQCtJSmrCp8JHMGtAyB2f6a33U0DCQJAEoiZ2ufQC5Ob5u48IX+cs7SNpYzi
N4A/F9GBT73wcbYyCFTdvwHis3cGZHWKBNZ5ObECAwPGBnTlkAUKEEYZMQNDAAJA
BISgJjFyDOhPXVMXYrGAysAWX8Me6sXZmDj5vlZTR2jOCCJXHLsNd5HPWzbt8ySC
kIrNkHzbd/kXLXNz77u5gqOB8jCB7zAdBgNVHQ4EFgQUvvmMXdYctO6B3TZWCiHk
YURz6eIwgb8GA1UdIwSBtzCBtIAUvvmMXdYctO6B3TZWCiHkYURz6eKhgZCkgY0w
gYoxCzAJBgNVBAYTAlVTMQ8wDQYDVQQIEwZPcmVnb24xETAPBgNVBAcTCFBvcnRs
YW5kMQ4wDAYDVQQKEwV5YVNTTDEQMA4GA1UECxMHdGVzdGluZzEWMBQGA1UEAxMN
d3d3Lnlhc3NsLmNvbTEdMBsGCSqGSIb3DQEJARYOaW5mb0B5YXNzbC5jb22CCQDO
3yMxZLQT2jAMBgNVHRMEBTADAQH/MAkGByqGSM44BAMDMAAwLQIUAKMhIDRqLPn7
dtcgycA1G2SawoMCFQCkWaxt2oVI//UNSXLIzZH87C9cYw==
-----END CERTIFICATE-----
