Certificate:
    Data:
        Version: 1 (0x0)
        Serial Number: 2 (0x2)
        Signature Algorithm: sha1WithRSAEncryption
        Issuer: C=US, ST=Montana, L=Bozeman, O=Sawtooth, OU=Consulting, CN=www.yassl.com/emailAddress=info@yassl.com
        Validity
            Not Before: Oct 24 18:27:13 2011 GMT
            Not After : Jul 20 18:27:13 2014 GMT
        Subject: C=US, ST=Montana, L=Bozeman, O=yaSSL, OU=Support, CN=www.yassl.com/emailAddress=info@yassl.com
        Subject Public Key Info:
            Public Key Algorithm: rsaEncryption
            RSA Public Key: (2048 bit)
                Modulus (2048 bit):
                    00:c0:95:08:e1:57:41:f2:71:6d:b7:d2:45:41:27:
                    01:65:c6:45:ae:f2:bc:24:30:b8:95:ce:2f:4e:d6:
                    f6:1c:88:bc:7c:9f:fb:a8:67:7f:fe:5c:9c:51:75:
                    f7:8a:ca:07:e7:35:2f:8f:e1:bd:7b:c0:2f:7c:ab:
                    64:a8:17:fc:ca:5d:7b:ba:e0:21:e5:72:2e:6f:2e:
                    86:d8:95:73:da:ac:1b:53:b9:5f:3f:d7:19:0d:25:
                    4f:e1:63:63:51:8b:0b:64:3f:ad:43:b8:a5:1c:5c:
                    34:b3:ae:00:a0:63:c5:f6:7f:0b:59:68:78:73:a6:
                    8c:18:a9:02:6d:af:c3:19:01:2e:b8:10:e3:c6:cc:
                    40:b4:69:a3:46:33:69:87:6e:c4:bb:17:a6:f3:e8:
                    dd:ad:73:bc:7b:2f:21:b5:fd:66:51:0c:bd:54:b3:
                    e1:6d:5f:1c:bc:23:73:d1:09:03:89:14:d2:10:b9:
                    64:c3:2a:d0:a1:96:4a:bc:e1:d4:1a:5b:c7:a0:c0:
                    c1:63:78:0f:44:37:30:32:96:80:32:23:95:a1:77:
                    ba:13:d2:97:73:e2:5d:25:c9:6a:0d:c3:39:60:a4:
                    b4:b0:69:42:42:09:e9:d8:08:bc:33:20:b3:58:22:
                    a7:aa:eb:c4:e1:e6:61:83:c5:d2:96:df:d9:d0:4f:
                    ad:d7
                Exponent: 65537 (0x10001)
    Signature Algorithm: sha1WithRSAEncryption
        71:4e:d3:62:df:cc:4c:f7:cd:b7:6e:52:0b:6c:6e:e0:bd:c2:
        2d:07:d7:c0:b0:6e:43:1e:35:bc:30:01:50:f0:ff:99:23:6c:
        18:1a:41:b6:11:d6:d4:19:61:fd:e4:77:97:1c:39:e1:57:ab:
        c5:15:63:77:11:36:5e:74:e2:24:0b:1f:41:78:ad:b7:81:e7:
        b4:40:66:80:f0:4b:91:a0:6d:a8:6e:3d:53:d9:8b:ce:2a:e1:
        0b:45:65:87:a1:96:ae:ee:3e:88:d5:12:1f:78:17:ae:2c:c5:
        73:44:d8:dc:f4:af:d8:cc:ae:4c:e1:0c:be:55:a4:99:f7:6e:
        96:c0:c8:45:87:bf:dc:51:57:ff:9e:73:37:6a:18:9c:c3:f9:
        22:7a:f4:b0:52:bd:fc:21:30:f8:c5:ff:1e:87:7d:ad:a2:5a:
        35:f5:22:a8:b4:0a:76:38:e6:76:b0:98:af:1b:ec:8a:0a:43:
        74:d2:85:34:37:84:07:e1:f6:23:b2:29:de:a6:b6:b7:4c:57:
        7e:96:06:cb:a9:16:25:29:3a:03:2d:55:7d:a6:8c:a4:f7:9e:
        81:c9:95:b6:7c:c1:4a:ce:94:66:0c:ca:88:eb:d2:09:f5:5b:
        19:58:82:df:27:fd:67:95:78:b7:02:06:d5:a7:61:bd:ef:3a:
        fc:b2:61:cd
-----BEGIN CERTIFICATE-----
MIIDkDCCAngCAQIwDQYJKoZIhvcNAQEFBQAwgZAxCzAJBgNVBAYTAlVTMRAwDgYD
VQQIEwdNb250YW5hMRAwDgYDVQQHEwdCb3plbWFuMREwDwYDVQQKEwhTYXd0b290
aDETMBEGA1UECxMKQ29uc3VsdGluZzEWMBQGA1UEAxMNd3d3Lnlhc3NsLmNvbTEd
MBsGCSqGSIb3DQEJARYOaW5mb0B5YXNzbC5jb20wHhcNMTExMDI0MTgyNzEzWhcN
MTQwNzIwMTgyNzEzWjCBijELMAkGA1UEBhMCVVMxEDAOBgNVBAgTB01vbnRhbmEx
EDAOBgNVBAcTB0JvemVtYW4xDjAMBgNVBAoTBXlhU1NMMRAwDgYDVQQLEwdTdXBw
b3J0MRYwFAYDVQQDEw13d3cueWFzc2wuY29tMR0wGwYJKoZIhvcNAQkBFg5pbmZv
QHlhc3NsLmNvbTCCASIwDQYJKoZIhvcNAQEBBQADggEPADCCAQoCggEBAMCVCOFX
QfJxbbfSRUEnAWXGRa7yvCQwuJXOL07W9hyIvHyf+6hnf/5cnFF194rKB+c1L4/h
vXvAL3yrZKgX/Mpde7rgIeVyLm8uhtiVc9qsG1O5Xz/XGQ0lT+FjY1GLC2Q/rUO4
pRxcNLOuAKBjxfZ/C1loeHOmjBipAm2vwxkBLrgQ48bMQLRpo0YzaYduxLsXpvPo
3a1zvHsvIbX9ZlEMvVSz4W1fHLwjc9EJA4kU0hC5ZMMq0KGWSrzh1Bpbx6DAwWN4
D0Q3MDKWgDIjlaF3uhPSl3PiXSXJag3DOWCktLBpQkIJ6dgIvDMgs1gip6rrxOHm
YYPF0pbf2dBPrdcCAwEAATANBgkqhkiG9w0BAQUFAAOCAQEAcU7TYt/MTPfNt25S
C2xu4L3CLQfXwLBuQx41vDABUPD/mSNsGBpBthHW1Blh/eR3lxw54VerxRVjdxE2
XnTiJAsfQXitt4HntEBmgPBLkaBtqG49U9mLzirhC0Vlh6GWru4+iNUSH3gXrizF
c0TY3PSv2MyuTOEMvlWkmfdulsDIRYe/3FFX/55zN2oYnMP5Inr0sFK9/CEw+MX/
Hod9raJaNfUiqLQKdjjmdrCYrxvsigpDdNKFNDeEB+H2I7Ip3qa2t0xXfpYGy6kW
JSk6Ay1VfaaMpPeegcmVtnzBSs6UZgzKiOvSCfVbGViC3yf9Z5V4twIG1adhve86
/LJhzQ==
-----END CERTIFICATE-----
Certificate:
    Data:
        Version: 3 (0x2)
        Serial Number:
            e9:d0:a7:5f:79:25:f4:3c
        Signature Algorithm: sha1WithRSAEncryption
        Issuer: C=US, ST=Montana, L=Bozeman, O=Sawtooth, OU=Consulting, CN=www.yassl.com/emailAddress=info@yassl.com
        Validity
            Not Before: Oct 24 18:18:15 2011 GMT
            Not After : Jul 20 18:18:15 2014 GMT
        Subject: C=US, ST=Montana, L=Bozeman, O=Sawtooth, OU=Consulting, CN=www.yassl.com/emailAddress=info@yassl.com
        Subject Public Key Info:
            Public Key Algorithm: rsaEncryption
            RSA Public Key: (2048 bit)
                Modulus (2048 bit):
                    00:bf:0c:ca:2d:14:b2:1e:84:42:5b:cd:38:1f:4a:
                    f2:4d:75:10:f1:b6:35:9f:df:ca:7d:03:98:d3:ac:
                    de:03:66:ee:2a:f1:d8:b0:7d:6e:07:54:0b:10:98:
                    21:4d:80:cb:12:20:e7:cc:4f:de:45:7d:c9:72:77:
                    32:ea:ca:90:bb:69:52:10:03:2f:a8:f3:95:c5:f1:
                    8b:62:56:1b:ef:67:6f:a4:10:41:95:ad:0a:9b:e3:
                    a5:c0:b0:d2:70:76:50:30:5b:a8:e8:08:2c:7c:ed:
                    a7:a2:7a:8d:38:29:1c:ac:c7:ed:f2:7c:95:b0:95:
                    82:7d:49:5c:38:cd:77:25:ef:bd:80:75:53:94:3c:
                    3d:ca:63:5b:9f:15:b5:d3:1d:13:2f:19:d1:3c:db:
                    76:3a:cc:b8:7d:c9:e5:c2:d7:da:40:6f:d8:21:dc:
                    73:1b:42:2d:53:9c:fe:1a:fc:7d:ab:7a:36:3f:98:
                    de:84:7c:05:67:ce:6a:14:38:87:a9:f1:8c:b5:68:
                    cb:68:7f:71:20:2b:f5:a0:63:f5:56:2f:a3:26:d2:
                    b7:6f:b1:5a:17:d7:38:99:08:fe:93:58:6f:fe:c3:
                    13:49:08:16:0b:a7:4d:67:00:52:31:67:23:4e:98:
                    ed:51:45:1d:b9:04:d9:0b:ec:d8:28:b3:4b:bd:ed:
                    36:79
                Exponent: 65537 (0x10001)
        X509v3 extensions:
            X509v3 Subject Key Identifier:
                27:8E:67:11:74:C3:26:1D:3F:ED:33:63:B3:A4:D8:1D:30:E5:E8:D5
            X509v3 Authority Key Identifier:
                keyid:27:8E:67:11:74:C3:26:1D:3F:ED:33:63:B3:A4:D8:1D:30:E5:E8:D5
                DirName:/C=US/ST=Montana/L=Bozeman/O=Sawtooth/OU=Consulting/CN=www.yassl.com/emailAddress=info@yassl.com
                serial:E9:D0:A7:5F:79:25:F4:3C

            X509v3 Basic Constraints:
                CA:TRUE
    Signature Algorithm: sha1WithRSAEncryption
        5f:86:14:f4:51:8b:bc:a5:4e:30:da:5e:ac:9a:f8:6c:d9:26:
        4b:93:f9:e3:1c:89:6f:9e:ee:b3:9d:77:3e:89:20:76:a3:e6:
        e8:86:15:21:db:e2:33:b2:34:d5:d0:9f:f3:c1:a4:87:92:5c:
        f9:d1:ff:30:2f:8e:03:bc:b3:3c:0c:32:a3:90:5f:1a:90:1e:
        af:9d:f3:9e:d7:07:02:a9:7d:27:66:63:2f:af:18:d7:ac:18:
        98:8c:83:8f:38:f3:0b:ac:36:10:75:fb:ca:76:13:50:5b:02:
        8f:73:bf:e3:a0:ee:83:52:25:54:ce:26:ce:9c:bd:2f:79:ab:
        1b:60:b8:92:f1:03:c0:fc:3b:08:d9:c0:ad:d5:72:08:25:80:
        61:2d:dc:9f:a7:83:62:07:47:e0:07:4c:4b:07:30:04:a9:87:
        1c:55:7f:07:12:d0:cb:42:5d:cb:cf:66:01:1a:17:ee:f9:0f:
        60:b7:db:6f:68:e5:4e:41:62:6e:d3:6f:60:4f:4b:27:de:cf:
        18:07:f1:13:5d:cb:3f:a9:25:44:da:52:5c:c8:04:e1:56:12:
        f5:2a:90:4e:d1:e2:af:01:b5:23:a1:ec:31:da:7b:63:69:c4:
        b8:f3:e7:ce:a1:3d:c0:db:6d:f3:b2:d9:46:c8:9f:c3:b8:70:
        5a:1f:7f:ca
-----BEGIN CERTIFICATE-----
MIIEnjCCA4agAwIBAgIJAOnQp195JfQ8MA0GCSqGSIb3DQEBBQUAMIGQMQswCQYD
VQQGEwJVUzEQMA4GA1UECBMHTW9udGFuYTEQMA4GA1UEBxMHQm96ZW1hbjERMA8G
A1UEChMIU2F3dG9vdGgxEzARBgNVBAsTCkNvbnN1bHRpbmcxFjAUBgNVBAMTDXd3
dy55YXNzbC5jb20xHTAbBgkqhkiG9w0BCQEWDmluZm9AeWFzc2wuY29tMB4XDTEx
MTAyNDE4MTgxNVoXDTE0MDcyMDE4MTgxNVowgZAxCzAJBgNVBAYTAlVTMRAwDgYD
VQQIEwdNb250YW5hMRAwDgYDVQQHEwdCb3plbWFuMREwDwYDVQQKEwhTYXd0b290
aDETMBEGA1UECxMKQ29uc3VsdGluZzEWMBQGA1UEAxMNd3d3Lnlhc3NsLmNvbTEd
MBsGCSqGSIb3DQEJARYOaW5mb0B5YXNzbC5jb20wggEiMA0GCSqGSIb3DQEBAQUA
A4IBDwAwggEKAoIBAQC/DMotFLIehEJbzTgfSvJNdRDxtjWf38p9A5jTrN4DZu4q
8diwfW4HVAsQmCFNgMsSIOfMT95FfclydzLqypC7aVIQAy+o85XF8YtiVhvvZ2+k
EEGVrQqb46XAsNJwdlAwW6joCCx87aeieo04KRysx+3yfJWwlYJ9SVw4zXcl772A
dVOUPD3KY1ufFbXTHRMvGdE823Y6zLh9yeXC19pAb9gh3HMbQi1TnP4a/H2rejY/
mN6EfAVnzmoUOIep8Yy1aMtof3EgK/WgY/VWL6Mm0rdvsVoX1ziZCP6TWG/+wxNJ
CBYLp01nAFIxZyNOmO1RRR25BNkL7Ngos0u97TZ5AgMBAAGjgfgwgfUwHQYDVR0O
BBYEFCeOZxF0wyYdP+0zY7Ok2B0w5ejVMIHFBgNVHSMEgb0wgbqAFCeOZxF0wyYd
P+0zY7Ok2B0w5ejVoYGWpIGTMIGQMQswCQYDVQQGEwJVUzEQMA4GA1UECBMHTW9u
dGFuYTEQMA4GA1UEBxMHQm96ZW1hbjERMA8GA1UEChMIU2F3dG9vdGgxEzARBgNV
BAsTCkNvbnN1bHRpbmcxFjAUBgNVBAMTDXd3dy55YXNzbC5jb20xHTAbBgkqhkiG
9w0BCQEWDmluZm9AeWFzc2wuY29tggkA6dCnX3kl9DwwDAYDVR0TBAUwAwEB/zAN
BgkqhkiG9w0BAQUFAAOCAQEAX4YU9FGLvKVOMNperJr4bNkmS5P54xyJb57us513
PokgdqPm6IYVIdviM7I01dCf88Gkh5Jc+dH/MC+OA7yzPAwyo5BfGpAer53zntcH
Aql9J2ZjL68Y16wYmIyDjzjzC6w2EHX7ynYTUFsCj3O/46Dug1IlVM4mzpy9L3mr
G2C4kvEDwPw7CNnArdVyCCWAYS3cn6eDYgdH4AdMSwcwBKmHHFV/BxLQy0Jdy89m
ARoX7vkPYLfbb2jlTkFibtNvYE9LJ97PGAfxE13LP6klRNpSXMgE4VYS9SqQTtHi
rwG1I6HsMdp7Y2nEuPPnzqE9wNtt87LZRsifw7hwWh9/yg==
