Certificate:
    Data:
        Version: 1 (0x0)
        Serial Number: 1 (0x1)
        Signature Algorithm: md5WithRSAEncryption
        Issuer: C=US, ST=Oregon, L=Portland, O=sawtooth, CN=www.sawtooth-consulting.com/emailAddress=info@yassl.com
        Validity
            Not Before: Mar  8 03:00:47 2005 GMT
            Not After : Apr  2 03:00:47 2046 GMT
        Subject: C=US, ST=Oregon, L=Portland, O=taoSoftDev, CN=www.taosoftdev.com/emailAddress=info@yassl.com
        Subject Public Key Info:
            Public Key Algorithm: rsaEncryption
            RSA Public Key: (512 bit)
                Modulus (512 bit):
                    00:a4:68:bb:bc:b7:27:5f:3c:f5:78:c6:1a:af:b9:
                    95:fc:7e:61:1f:a8:81:0a:ca:43:88:9a:03:e0:d0:
                    a6:79:70:16:34:b9:7c:75:54:ca:70:19:66:38:be:
                    6e:28:7e:a5:ff:6b:3c:83:2f:39:42:c3:15:f3:bd:
                    f2:25:93:22:e7
                Exponent: 65537 (0x10001)
    Signature Algorithm: md5WithRSAEncryption
        36:72:12:3b:ac:e4:58:83:09:86:4f:71:2a:3a:0d:8a:05:27:
        75:f3:3e:62:4f:ab:b8:70:20:cd:ad:70:ab:91:11:68:f8:82:
        33:e2:78:85:a8:16:f5:66:bd:68:2c:5a:26:15:12:1e:6e:83:
        c7:6d:62:b9:c3:ff:e1:86:e4:e6
-----BEGIN CERTIFICATE-----
MIIB9zCCAaECAQEwDQYJKoZIhvcNAQEEBQAwgYkxCzAJBgNVBAYTAlVTMQ8wDQYD
VQQIEwZPcmVnb24xETAPBgNVBAcTCFBvcnRsYW5kMREwDwYDVQQKEwhzYXd0b290
aDEkMCIGA1UEAxMbd3d3LnNhd3Rvb3RoLWNvbnN1bHRpbmcuY29tMR0wGwYJKoZI
hvcNAQkBFg5pbmZvQHlhc3NsLmNvbTAeFw0wNTAzMDgwMzAwNDdaFw00NjA0MDIw
MzAwNDdaMIGCMQswCQYDVQQGEwJVUzEPMA0GA1UECBMGT3JlZ29uMREwDwYDVQQH
EwhQb3J0bGFuZDETMBEGA1UEChMKdGFvU29mdERldjEbMBkGA1UEAxMSd3d3LnRh
b3NvZnRkZXYuY29tMR0wGwYJKoZIhvcNAQkBFg5pbmZvQHlhc3NsLmNvbTBcMA0G
CSqGSIb3DQEBAQUAA0sAMEgCQQCkaLu8tydfPPV4xhqvuZX8fmEfqIEKykOImgPg
0KZ5cBY0uXx1VMpwGWY4vm4ofqX/azyDLzlCwxXzvfIlkyLnAgMBAAEwDQYJKoZI
hvcNAQEEBQADQQA2chI7rORYgwmGT3EqOg2KBSd18z5iT6u4cCDNrXCrkRFo+IIz
4niFqBb1Zr1oLFomFRIeboPHbWK5w//hhuTm
-----END CERTIFICATE-----
