Certificate:
    Data:
        Version: 1 (0x0)
        Serial Number: 1 (0x1)
        Signature Algorithm: md5WithRSAEncryption
        Issuer: C=US, ST=Montana, L=Bozeman, O=sawtooth, OU=consulting, CN=www.sawtooth-consulting.com/emailAddress=info@yassl.com
        Validity
            Not Before: Jun 30 18:52:17 2010 GMT
            Not After : Mar 26 18:52:17 2013 GMT
        Subject: C=US, ST=Montana, L=Bozeman, O=yaSSL, OU=support, CN=www.yassl.com/emailAddress=info@yassl.com
        Subject Public Key Info:
            Public Key Algorithm: rsaEncryption
            RSA Public Key: (512 bit)
                Modulus (512 bit):
                    00:c6:7b:c0:68:81:2f:de:82:3f:f9:ac:c3:86:4a:
                    66:b7:ec:d4:f1:f6:64:21:ff:f5:a2:34:42:d0:38:
                    9f:c6:dd:3b:6e:26:65:6a:54:96:dd:d2:7b:eb:36:
                    a2:ae:7e:2a:9e:7e:56:a5:b6:87:9f:15:c7:18:66:
                    7e:16:77:e2:a7
                Exponent: 65537 (0x10001)
    Signature Algorithm: md5WithRSAEncryption
        58:a9:98:e7:16:52:4c:40:e7:e1:47:92:19:1b:3a:8f:97:6c:
        7b:b7:b0:cb:20:6d:ad:b5:d3:47:58:d8:e4:f2:3e:32:e9:ef:
        87:77:e5:54:36:f4:8d:50:8d:07:b4:77:45:ea:9d:a4:33:36:
        9b:0b:e0:74:58:11:c5:01:7b:4d
-----BEGIN CERTIFICATE-----
MIICFDCCAb4CAQEwDQYJKoZIhvcNAQEEBQAwgZ4xCzAJBgNVBAYTAlVTMRAwDgYD
VQQIEwdNb250YW5hMRAwDgYDVQQHEwdCb3plbWFuMREwDwYDVQQKEwhzYXd0b290
aDETMBEGA1UECxMKY29uc3VsdGluZzEkMCIGA1UEAxMbd3d3LnNhd3Rvb3RoLWNv
bnN1bHRpbmcuY29tMR0wGwYJKoZIhvcNAQkBFg5pbmZvQHlhc3NsLmNvbTAeFw0x
MDA2MzAxODUyMTdaFw0xMzAzMjYxODUyMTdaMIGKMQswCQYDVQQGEwJVUzEQMA4G
A1UECBMHTW9udGFuYTEQMA4GA1UEBxMHQm96ZW1hbjEOMAwGA1UEChMFeWFTU0wx
EDAOBgNVBAsTB3N1cHBvcnQxFjAUBgNVBAMTDXd3dy55YXNzbC5jb20xHTAbBgkq
hkiG9w0BCQEWDmluZm9AeWFzc2wuY29tMFwwDQYJKoZIhvcNAQEBBQADSwAwSAJB
AMZ7wGiBL96CP/msw4ZKZrfs1PH2ZCH/9aI0QtA4n8bdO24mZWpUlt3Se+s2oq5+
Kp5+VqW2h58VxxhmfhZ34qcCAwEAATANBgkqhkiG9w0BAQQFAANBAFipmOcWUkxA
5+FHkhkbOo+XbHu3sMsgba2100dY2OTyPjLp74d35VQ29I1QjQe0d0XqnaQzNpsL
4HRYEcUBe00=
-----END CERTIFICATE-----
