Certificate:
    Data:
        Version: 1 (0x0)
        Serial Number: 1 (0x1)
        Signature Algorithm: md5WithRSAEncryption
        Issuer: C=US, ST=Oregon, L=Portland, O=sawtooth, CN=www.sawtooth-consulting.com/emailAddress=info@yassl.com
        Validity
            Not Before: Jan 18 20:50:59 2005 GMT
            Not After : Oct 15 20:50:59 2007 GMT
        Subject: C=US, ST=Oregon, L=Portland, O=taoSoftDev, CN=www.taosoftdev.com/emailAddress=info@yassl.com
        Subject Public Key Info:
            Public Key Algorithm: rsaEncryption
            RSA Public Key: (512 bit)
                Modulus (512 bit):
                    00:a4:68:bb:bc:b7:27:5f:3c:f5:78:c6:1a:af:b9:
                    95:fc:7e:61:1f:a8:81:0a:ca:43:88:9a:03:e0:d0:
                    a6:79:70:16:34:b9:7c:75:54:ca:70:19:66:38:be:
                    6e:28:7e:a5:ff:6b:3c:83:2f:39:42:c3:15:f3:bd:
                    f2:25:93:22:e7
                Exponent: 65537 (0x10001)
    Signature Algorithm: md5WithRSAEncryption
        08:36:07:8c:3a:7f:f9:91:0a:82:d1:6a:c1:34:be:bc:2d:b2:
        20:98:dc:45:50:53:9c:66:e6:26:71:bd:fa:d2:b4:91:d3:53:
        c0:20:05:c0:b6:84:9a:5f:3f:61:75:f5:fd:c6:ec:e2:f6:9f:
        a2:13:17:a9:b7:83:60:cc:cb:eb
-----BEGIN CERTIFICATE-----
MIIB9zCCAaECAQEwDQYJKoZIhvcNAQEEBQAwgYkxCzAJBgNVBAYTAlVTMQ8wDQYD
VQQIEwZPcmVnb24xETAPBgNVBAcTCFBvcnRsYW5kMREwDwYDVQQKEwhzYXd0b290
aDEkMCIGA1UEAxMbd3d3LnNhd3Rvb3RoLWNvbnN1bHRpbmcuY29tMR0wGwYJKoZI
hvcNAQkBFg5pbmZvQHlhc3NsLmNvbTAeFw0wNTAxMTgyMDUwNTlaFw0wNzEwMTUy
MDUwNTlaMIGCMQswCQYDVQQGEwJVUzEPMA0GA1UECBMGT3JlZ29uMREwDwYDVQQH
EwhQb3J0bGFuZDETMBEGA1UEChMKdGFvU29mdERldjEbMBkGA1UEAxMSd3d3LnRh
b3NvZnRkZXYuY29tMR0wGwYJKoZIhvcNAQkBFg5pbmZvQHlhc3NsLmNvbTBcMA0G
CSqGSIb3DQEBAQUAA0sAMEgCQQCkaLu8tydfPPV4xhqvuZX8fmEfqIEKykOImgPg
0KZ5cBY0uXx1VMpwGWY4vm4ofqX/azyDLzlCwxXzvfIlkyLnAgMBAAEwDQYJKoZI
hvcNAQEEBQADQQAINgeMOn/5kQqC0WrBNL68LbIgmNxFUFOcZuYmcb360rSR01PA
IAXAtoSaXz9hdfX9xuzi9p+iExept4NgzMvr
-----END CERTIFICATE-----
