Certificate:
    Data:
        Version: 3 (0x2)
        Serial Number:
            27:9a:6f:41:cc:a4:9a:73:13:55:a3:b6:f4:3f:71:d5:8a:a8:91:20
        Signature Algorithm: sha256WithRSAEncryption
        Issuer: C=IN, ST=KA, O=Oracle, OU=MySQL, CN=MySQL CRL test ca certificate
        Validity
            Not Before: Jul  1 12:18:02 2019 GMT
            Not After : Jun 30 12:18:02 2020 GMT
        Subject: C=IN, ST=KA, L=Bangalore, O=Oracle, OU=MySQL, CN=MySQL CRL test client certificate revoked
        Subject Public Key Info:
            Public Key Algorithm: rsaEncryption
                RSA Public-Key: (2048 bit)
                Modulus:
                    00:e2:df:28:76:87:da:b5:49:64:03:a4:92:50:53:
                    89:d1:b8:85:a8:76:6e:2c:44:6a:85:f2:a2:7a:d9:
                    f1:26:ab:f7:ea:e4:46:77:ce:38:9e:49:dc:e0:c0:
                    ce:c1:e3:e2:3c:80:3a:e0:ab:7d:1a:fa:31:12:59:
                    a5:b1:24:b5:42:30:e7:1d:95:85:4d:eb:17:ce:13:
                    8f:7b:25:7b:4b:ff:44:7c:b6:07:4b:e3:b8:ab:c2:
                    0d:07:6f:e3:bb:2d:56:8d:0f:c7:78:29:c7:c6:94:
                    df:82:d6:32:15:cb:5f:e1:7b:8a:38:e0:ae:cd:aa:
                    58:37:99:6b:5a:52:20:a5:fb:fa:d7:61:bd:c4:5d:
                    11:fc:10:0f:49:74:9e:be:30:6b:cb:c1:4b:b8:5c:
                    50:85:4a:fd:d1:13:3f:3e:e0:b8:3e:ec:30:92:9b:
                    2b:b1:67:86:2e:2f:76:5d:ce:16:31:7f:eb:0e:0e:
                    ba:14:97:d1:5e:35:fb:c9:af:fe:20:36:56:60:bc:
                    95:45:84:de:90:59:d8:24:57:24:48:4a:cf:3f:9b:
                    b2:89:7d:9d:91:dd:da:92:a6:77:01:9e:09:5c:96:
                    a3:94:d4:95:5e:69:d4:a4:13:af:47:e3:64:7a:26:
                    bf:c4:a2:6b:0b:5f:b6:f9:ee:40:1e:e8:54:04:bd:
                    98:89
                Exponent: 65537 (0x10001)
        X509v3 extensions:
            X509v3 Subject Key Identifier: 
                99:C4:1D:9A:1D:7D:43:C0:FB:B2:17:64:60:B3:33:0B:9C:69:1E:6F
            X509v3 Authority Key Identifier: 
                keyid:A7:2E:CA:53:05:52:06:12:BD:ED:FF:CF:B8:BA:30:E7:7A:1F:96:46

            X509v3 Basic Constraints: critical
                CA:TRUE
    Signature Algorithm: sha256WithRSAEncryption
         10:35:2a:20:3e:7c:d0:8d:7a:c8:0a:1f:a9:ad:c2:67:c5:eb:
         bd:f6:eb:67:e6:e4:d2:d0:c8:0c:1b:9d:fb:99:a6:1c:b5:30:
         23:35:71:19:a3:1c:fd:f1:f1:a9:30:de:1c:b0:c4:05:2b:93:
         4d:60:e7:00:0d:c3:3b:d5:67:6a:38:3f:6a:ee:63:bd:ce:7f:
         a4:b8:9a:23:7b:d9:68:5d:80:04:b8:43:98:00:18:70:89:71:
         38:3b:07:33:0f:60:2c:cf:90:7c:bd:78:69:6f:a1:38:a1:0f:
         37:04:af:01:6c:ba:7a:84:d8:4b:ed:e3:f5:52:ec:de:a1:0c:
         ac:a5:35:62:75:b5:36:6e:75:77:9f:14:40:c2:6f:93:f3:23:
         70:ff:fe:0e:6a:50:45:45:e4:8c:98:8b:4d:2f:8c:05:43:29:
         eb:0d:09:25:1a:c6:19:1b:8c:7a:ae:c4:31:b7:54:e6:d2:dd:
         62:c5:18:6d:b8:e0:ce:d9:84:0a:ca:f0:95:2b:92:d0:69:f5:
         85:6e:f1:49:63:fe:e9:71:a3:4b:55:ed:56:f1:de:96:7d:b9:
         6f:be:8f:00:99:e6:c8:21:26:eb:9c:d9:3b:da:9e:5d:dd:8e:
         64:5d:de:d4:60:56:5f:59:62:05:c8:f4:0d:ab:dd:ac:54:2c:
         66:24:ea:da
-----BEGIN CERTIFICATE-----
MIIDyDCCArCgAwIBAgIUJ5pvQcykmnMTVaO29D9x1YqokSAwDQYJKoZIhvcNAQEL
BQAwYzELMAkGA1UEBhMCSU4xCzAJBgNVBAgMAktBMQ8wDQYDVQQKDAZPcmFjbGUx
DjAMBgNVBAsMBU15U1FMMSYwJAYDVQQDDB1NeVNRTCBDUkwgdGVzdCBjYSBjZXJ0
aWZpY2F0ZTAeFw0xOTA3MDExMjE4MDJaFw0yMDA2MzAxMjE4MDJaMIGDMQswCQYD
VQQGEwJJTjELMAkGA1UECAwCS0ExEjAQBgNVBAcMCUJhbmdhbG9yZTEPMA0GA1UE
CgwGT3JhY2xlMQ4wDAYDVQQLDAVNeVNRTDEyMDAGA1UEAwwpTXlTUUwgQ1JMIHRl
c3QgY2xpZW50IGNlcnRpZmljYXRlIHJldm9rZWQwggEiMA0GCSqGSIb3DQEBAQUA
A4IBDwAwggEKAoIBAQDi3yh2h9q1SWQDpJJQU4nRuIWodm4sRGqF8qJ62fEmq/fq
5EZ3zjieSdzgwM7B4+I8gDrgq30a+jESWaWxJLVCMOcdlYVN6xfOE497JXtL/0R8
tgdL47irwg0Hb+O7LVaND8d4KcfGlN+C1jIVy1/he4o44K7Nqlg3mWtaUiCl+/rX
Yb3EXRH8EA9JdJ6+MGvLwUu4XFCFSv3REz8+4Lg+7DCSmyuxZ4YuL3ZdzhYxf+sO
DroUl9FeNfvJr/4gNlZgvJVFhN6QWdgkVyRISs8/m7KJfZ2R3dqSpncBnglclqOU
1JVeadSkE69H42R6Jr/EomsLX7b57kAe6FQEvZiJAgMBAAGjUzBRMB0GA1UdDgQW
BBSZxB2aHX1DwPuyF2RgszMLnGkebzAfBgNVHSMEGDAWgBSnLspTBVIGEr3t/8+4
ujDneh+WRjAPBgNVHRMBAf8EBTADAQH/MA0GCSqGSIb3DQEBCwUAA4IBAQAQNSog
PnzQjXrICh+prcJnxeu99utn5uTS0MgMG537maYctTAjNXEZoxz98fGpMN4csMQF
K5NNYOcADcM71WdqOD9q7mO9zn+kuJoje9loXYAEuEOYABhwiXE4OwczD2Asz5B8
vXhpb6E4oQ83BK8BbLp6hNhL7eP1UuzeoQyspTVidbU2bnV3nxRAwm+T8yNw//4O
alBFReSMmItNL4wFQynrDQklGsYZG4x6rsQxt1Tm0t1ixRhtuODO2YQKyvCVK5LQ
afWFbvFJY/7pcaNLVe1W8d6Wfblvvo8AmebIISbrnNk72p5d3Y5kXd7UYFZfWWIF
yPQNq92sVCxmJOra
-----END CERTIFICATE-----
